(lp0
((dp1
S'right'
p2
I01
sS'parties'
p3
I01
sS'cost'
p4
I01
sS'including'
p5
I01
sS'year'
p6
I01
sS'issues'
p7
I01
sS'provided'
p8
I01
sS'publication'
p9
I01
sS'copyright'
p10
I01
sS'content'
p11
I01
sS'written'
p12
I01
sS'editor'
p13
I01
sS'online'
p14
I01
sS'print'
p15
I01
sS'party'
p16
I01
sS'issue'
p17
I01
sS'either'
p18
I01
sS'notice'
p19
I01
sS'shall'
p20
I01
sS'may'
p21
I01
sS'journal'
p22
I01
sS'agreement'
p23
I01
sS'association'
p24
I01
sS'publisher'
p25
I01
sS'c'
p26
I01
sS'b'
p27
I01
sS'rights'
p28
I01
sS'advertising'
p29
I01
sS'editorial'
p30
I01
sS'otherwise'
p31
I01
sVneg
p32
tp33
a((dp34
S'collaborating'
p35
I01
sS'parties'
p36
I01
sS'patient'
p37
I01
sS'certificate'
p38
I01
sS'review'
p39
I01
sS'agency'
p40
I01
sS'state'
p41
I01
sS'consultation'
p42
I01
sS'health'
p43
I01
sS'np'
p44
I01
sS'new'
p45
I01
sS'rn'
p46
I01
sS'disagreements'
p47
I01
sS'practitioner'
p48
I01
sS'collaborative'
p49
I01
sS'shall'
p50
I01
sS'may'
p51
I01
sS'registered'
p52
I01
sS'practice'
p53
I01
sS'agreement'
p54
I01
sS'specialty'
p55
I01
sS'york'
p56
I01
sS'scope'
p57
I01
sS'date'
p58
I01
sS'nurse'
p59
I01
sS'protocols'
p60
I01
sS'physician'
p61
I01
sS'name'
p62
I01
sS'license'
p63
I01
sS'identified'
p64
I01
sg32
tp65
a((dp66
S'edc'
p67
I01
sS'set'
p68
I01
sS'confidentiality'
p69
I01
sS'date'
p70
I01
sS'including'
p71
I01
sS'information'
p72
I01
sS'privacy'
p73
I01
sS'personal'
p74
I01
sS'schedule'
p75
I01
sS'1'
p76
I01
sS'written'
p77
I01
sS'2'
p78
I01
sS'supplier'
p79
I01
sS'party'
p80
I01
sS'confidential'
p81
I01
sS'shall'
p82
I01
sS'may'
p83
I01
sS'act'
p84
I01
sS'agreement'
p85
I01
sS'deliverables'
p86
I01
sS'representative'
p87
I01
sS'services'
p88
I01
sS'law'
p89
I01
sS'recipient'
p90
I01
sS'customer'
p91
I01
sg26
I01
sg27
I01
sS'rights'
p92
I01
sS'applicable'
p93
I01
sS'time'
p94
I01
sg32
tp95
a((dp96
S'within'
p97
I01
sS'year'
p98
I01
sS'agent'
p99
I01
sS'month'
p100
I01
sS'held'
p101
I01
sS'rent'
p102
I01
sS'fees'
p103
I01
sS'court'
p104
I01
sS'pay'
p105
I01
sS'due'
p106
I01
sS'premises'
p107
I01
sS'written'
p108
I01
sS'condition'
p109
I01
sS'lease'
p110
I01
sS'notice'
p111
I01
sS'shall'
p112
I01
sS'may'
p113
I01
sS'agreement'
p114
I01
sS'state'
p115
I01
sS'date'
p116
I01
sS'law'
p117
I01
sS'tenant'
p118
I01
sS'must'
p119
I01
sS'made'
p120
I01
sS'room'
p121
I01
sS'days'
p122
I01
sS'deposit'
p123
I01
sS'landlord'
p124
I01
sS'security'
p125
I01
sS'property'
p126
I01
sg32
tp127
a((dp128
S'office'
p129
I01
sS'resident'
p130
I01
sS'som'
p131
I01
sS'fellow'
p132
I01
sS'including'
p133
I01
sS'patient'
p134
I01
sS'employment'
p135
I01
sS'information'
p136
I01
sS'requirements'
p137
I01
sS'fellows'
p138
I01
sS'fellowship'
p139
I01
sS'program'
p140
I01
sS'policy'
p141
I01
sS'evaluation'
p142
I01
sS'activities'
p143
I01
sS'appointment'
p144
I01
sS'may'
p145
I01
sS'curriculum'
p146
I01
sS'uconn'
p147
I01
sS'services'
p148
I01
sS'procedures'
p149
I01
sS'care'
p150
I01
sS'training'
p151
I01
sS'medical'
p152
I01
sS'required'
p153
I01
sS'manual'
p154
I01
sS'leave'
p155
I01
sS'residency'
p156
I01
sS'policies'
p157
I01
sS'residents'
p158
I01
sg32
tp159
a((dp160
S'right'
p161
I01
sS'lessor'
p162
I01
sS'parties'
p163
I01
sS'roads'
p164
I01
sS'premises'
p165
I01
sS'agrees'
p166
I01
sS'timber'
p167
I01
sS'use'
p168
I01
sS'said'
p169
I01
sS'hunting'
p170
I01
sS'state'
p171
I01
sS'fire'
p172
I01
sS'written'
p173
I01
sS'damages'
p174
I01
sS'lease'
p175
I01
sS'shall'
p176
I01
sS'may'
p177
I01
sS'upon'
p178
I01
sS'leased'
p179
I01
sS'agreement'
p180
I01
sS'trees'
p181
I01
sS'regulations'
p182
I01
sS'term'
p183
I01
sS'land'
p184
I01
sS'rights'
p185
I01
sS'rules'
p186
I01
sS'lessee'
p187
I01
sS'prior'
p188
I01
sS'time'
p189
I01
sS'invitees'
p190
I01
sg32
tp191
a((dp192
S'right'
p193
I01
sS'thereon'
p194
I01
sS'violation'
p195
I01
sS'share'
p196
I01
sS'including'
p197
I01
sS'rent'
p198
I01
sS'another'
p199
I01
sS'hereto'
p200
I01
sS'agrees'
p201
I01
sS'said'
p202
I01
sS'20'
p203
I01
sS'pet'
p204
I01
sS'pay'
p205
I01
sS'responsible'
p206
I01
sS'3'
p207
I01
sS'4'
p208
I01
sS'lease'
p209
I01
sS'shall'
p210
I01
sS'premises'
p211
I01
sS'agreement'
p212
I01
sS'roommate'
p213
I01
sS'date'
p214
I01
sS'copy'
p215
I01
sS'charges'
p216
I01
sS'follows'
p217
I01
sS'required'
p218
I01
sS'without'
p219
I01
sS'roommates'
p220
I01
sS'landlord'
p221
I01
sS'solely'
p222
I01
sg32
tp223
a((dp224
S'relevant'
p225
I01
sS'tax'
p226
I01
sS'ii'
p227
I01
sS'currency'
p228
I01
sS'specified'
p229
I01
sS'respect'
p230
I01
sS'event'
p231
I01
sS'support'
p232
I01
sS'means'
p233
I01
sg78
I01
sS'6'
p234
I01
sS'party'
p235
I01
sS'document'
p236
I01
sS'affected'
p237
I01
sS'transactions'
p238
I01
sS'may'
p239
I01
sS'agreement'
p240
I01
sS'early'
p241
I01
sg27
I01
sS'date'
p242
I01
sS'law'
p243
I01
sS'payment'
p244
I01
sS'transaction'
p245
I01
sS'e'
p246
I01
sS'default'
p247
I01
sS'applicable'
p248
I01
sS'credit'
p249
I01
sS'amount'
p250
I01
sS'termination'
p251
I01
sS'section'
p252
I01
sg32
tp253
a((dp254
S'purchaser'
p255
I01
sS'copies'
p256
I01
sS'agreed'
p257
I01
sS'pursuant'
p258
I01
sS'one'
p259
I01
sS'furnishing'
p260
I01
sS'parties'
p261
I01
sS'writing'
p262
I01
sS'hereinafter'
p263
I01
sS'insurance'
p264
I01
sS'described'
p265
I01
sS'additional'
p266
I01
sS'working'
p267
I01
sS'workers'
p268
I01
sS'acceptance'
p269
I01
sS'rev'
p270
I01
sS'compensation'
p271
I01
sS'contractor'
p272
I01
sS'location'
p273
I01
sS'independent'
p274
I01
sS'agrees'
p275
I01
sS'agreement'
p276
I01
sS'letter'
p277
I01
sS'workmanlike'
p278
I01
sS'services'
p279
I01
sS'employees'
p280
I01
sS'work'
p281
I01
sS'connection'
p282
I01
sS'called'
p283
I01
sS'performed'
p284
I01
sg32
tp285
a((dp286
S'co'
p287
I01
sS'violation'
p288
I01
sS'terminate'
p289
I01
sS'period'
p290
I01
sS'agent'
p291
I01
sS'performance'
p292
I01
sS'parties'
p293
I01
sS'distributor'
p294
I01
sS'agrees'
p295
I01
sS'arbitration'
p296
I01
sS'provided'
p297
I01
sS'provisions'
p298
I01
sS'contracts'
p299
I01
sS'written'
p300
I01
sS'conduct'
p301
I01
sS'breach'
p302
I01
sS'maryland'
p303
I01
sS'duties'
p304
I01
sS'notice'
p305
I01
sS'business'
p306
I01
sS'shall'
p307
I01
sS'may'
p308
I01
sS'company'
p309
I01
sS'upon'
p310
I01
sS'agreement'
p311
I01
sS'party'
p312
I01
sS'work'
p313
I01
sS'products'
p314
I01
sS'either'
p315
I01
sS'termination'
p316
I01
sg32
tp317
a((dp318
S'coach'
p319
I01
sS'commitment'
p320
I01
sS'process'
p321
I01
sS'number'
p322
I01
sS'month'
p323
I01
sS'session'
p324
I01
sS'fees'
p325
I01
sS'agrees'
p326
I01
sS'provided'
p327
I01
sS'monthly'
p328
I01
sg207
I01
sS'coaching'
p329
I01
sS'progress'
p330
I01
sS'scheduled'
p331
I01
sS'appointment'
p332
I01
sS'relationship'
p333
I01
sS'sessions'
p334
I01
sS'may'
p335
I01
sS'conversations'
p336
I01
sS'agreement'
p337
I01
sS'telephone'
p338
I01
sS'minute'
p339
I01
sS'made'
p340
I01
sS'calls'
p341
I01
sS'30'
p342
I01
sS'information'
p343
I01
sS'client'
p344
I01
sS'personal'
p345
I01
sS'time'
p346
I01
sS'agree'
p347
I01
sg32
tp348
a((dp349
S'applicable'
p350
I01
sS'including'
p351
I01
sS'insurance'
p352
I01
sS'information'
p353
I01
sS'group'
p354
I01
sS'alcohol'
p355
I01
sS'contractor'
p356
I01
sS'policy'
p357
I01
sS'business'
p358
I01
sS'shall'
p359
I01
sS'may'
p360
I01
sS'company'
p361
I01
sS'agreement'
p362
I01
sS'liability'
p363
I01
sS'employee'
p364
I01
sS'coverage'
p365
I01
sS'contractors'
p366
I01
sS'services'
p367
I01
sS'eog'
p368
I01
sg26
I01
sg246
I01
sS'employees'
p369
I01
sS'required'
p370
I01
sS'l'
p371
I01
sS'n'
p372
I01
sS'r'
p373
I01
sS'u'
p374
I01
sS'provided'
p375
I01
sS'property'
p376
I01
sS'laws'
p377
I01
sg32
tp378
a((dp379
S'negligence'
p380
I01
sS'agreed'
p381
I01
sS'assigned'
p382
I01
sS'understood'
p383
I01
sS'donated'
p384
I01
sS'parties'
p385
I01
sS'apply'
p386
I01
sS'agrees'
p387
I01
sS'said'
p388
I01
sS'voluntary'
p389
I01
sS'service'
p390
I01
sS'employee'
p391
I01
sS'scope'
p392
I01
sS'donate'
p393
I01
sS'occurs'
p394
I01
sS'shall'
p395
I01
sS'may'
p396
I01
sS'rise'
p397
I01
sS'agreement'
p398
I01
sS'liability'
p399
I01
sS'part'
p400
I01
sS'understand'
p401
I01
sS'date'
p402
I01
sS'volunteer'
p403
I01
sS'hours'
p404
I01
sS'name'
p405
I01
sS'charity'
p406
I01
sS'services'
p407
I01
sS'signature'
p408
I01
sS'referred'
p409
I01
sg32
tp410
a((dp411
S'right'
p412
I01
sS'xyz'
p413
I01
sS'describe'
p414
I01
sS'library'
p415
I01
sS'including'
p416
I01
sS'contractor'
p417
I01
sS'use'
p418
I01
sS'described'
p419
I01
sS'copyright'
p420
I01
sS'title'
p421
I01
sS'writing'
p422
I01
sS'regents'
p423
I01
sS'5'
p424
I01
sS'acceptable'
p425
I01
sS'shall'
p426
I01
sS'michigan'
p427
I01
sS'agreement'
p428
I01
sS'letter'
p429
I01
sS'date'
p430
I01
sS'hold'
p431
I01
sS'kindly'
p432
I01
sS'hire'
p433
I01
sS'made'
p434
I01
sS'name'
p435
I01
sS'rights'
p436
I01
sS'considered'
p437
I01
sS'university'
p438
I01
sS'work'
p439
I01
sS'property'
p440
I01
sS'agree'
p441
I01
sg32
tp442
a((dp443
S'disclosure'
p444
I01
sS'proprietary'
p445
I01
sS'furnished'
p446
I01
sS'obligations'
p447
I01
sS'disclosing'
p448
I01
sS'parties'
p449
I01
sS'agrees'
p450
I01
sS'subject'
p451
I01
sS'information'
p452
I01
sS'use'
p453
I01
sS'available'
p454
I01
sS'except'
p455
I01
sS'writing'
p456
I01
sS'disclosed'
p457
I01
sS'party'
p458
I01
sS'receiving'
p459
I01
sS'either'
p460
I01
sS'disclose'
p461
I01
sS'confidential'
p462
I01
sS'shall'
p463
I01
sS'may'
p464
I01
sS'agreement'
p465
I01
sS'promptly'
p466
I01
sS'purpose'
p467
I01
sS'hereunder'
p468
I01
sS'regarding'
p469
I01
sS'name'
p470
I01
sS'matter'
p471
I01
sS'relief'
p472
I01
sS'enforce'
p473
I01
sg32
tp474
a((dp475
S'financial'
p476
I01
sS'sign'
p477
I01
sS'including'
p478
I01
sS'total'
p479
I01
sS'best'
p480
I01
sS'knowledge'
p481
I01
sS'pay'
p482
I01
sS'seller'
p483
I01
sS'may'
p484
I01
sS'inventory'
p485
I01
sS'price'
p486
I01
sS'warranties'
p487
I01
sS'attachment'
p488
I01
sS'good'
p489
I01
sS'business'
p490
I01
sS'premises'
p491
I01
sS'sold'
p492
I01
sS'agreement'
p493
I01
sS'liability'
p494
I01
sS'buyer'
p495
I01
sS'representations'
p496
I01
sS'security'
p497
I01
sg26
I01
sS'goods'
p498
I01
sS'assets'
p499
I01
sS'sale'
p500
I01
sS'person'
p501
I01
sS'deposit'
p502
I01
sS'closing'
p503
I01
sS'laws'
p504
I01
sg32
tp505
a((dp506
S'trainer'
p507
I01
sS'considerations'
p508
I01
sS'equally'
p509
I01
sS'financial'
p510
I01
sS'help'
p511
I01
sS'session'
p512
I01
sS'including'
p513
I01
sS'investment'
p514
I01
sS'participant'
p515
I01
sS'personal'
p516
I01
sg207
I01
sS'program'
p517
I01
sS'supervised'
p518
I01
sS'conditions'
p519
I01
sS'exercise'
p520
I01
sS'sessions'
p521
I01
sS'time'
p522
I01
sS'however'
p523
I01
sS'unused'
p524
I01
sS'date'
p525
I01
sS'training'
p526
I01
sS'made'
p527
I01
sS'unsupervised'
p528
I01
sS'days'
p529
I01
sS'contract'
p530
I01
sS'nsca'
p531
I01
sS'responsibility'
p532
I01
sS'risks'
p533
I01
sS'signature'
p534
I01
sS'agree'
p535
I01
sg32
tp536
a((dp537
S'scrip'
p538
I01
sS'fair'
p539
I01
sS'issued'
p540
I01
sS'association'
p541
I01
sS'shareholders'
p542
I01
sS'20'
p543
I01
sS'merger'
p544
I01
sS'section'
p545
I01
sS'shares'
p546
I01
sS'board'
p547
I01
sS'capital'
p548
I01
sS'certificates'
p549
I01
sS'stock'
p550
I01
sS'shall'
p551
I01
sS'may'
p552
I01
sS'acceptable'
p553
I01
sS'fractional'
p554
I01
sS'agreement'
p555
I01
sS'date'
p556
I01
sS'bank'
p557
I01
sS'made'
p558
I01
sS'assets'
p559
I01
sS'effective'
p560
I01
sS'cash'
p561
I01
sS'value'
p562
I01
sS'directors'
p563
I01
sS'common'
p564
I01
sS'time'
p565
I01
sS'banks'
p566
I01
sS'creditors'
p567
I01
sg32
tp568
a((dp569
S'199'
p570
I01
sS'parties'
p571
I01
sS'tax'
p572
I01
sS'herein'
p573
I01
sS'one'
p574
I01
sS'year'
p575
I01
sS'settlement'
p576
I01
sS'children'
p577
I01
sS'pay'
p578
I01
sS'support'
p579
I01
sS'event'
p580
I01
sS'also'
p581
I01
sS'interest'
p582
I01
sS'income'
p583
I01
sS'party'
p584
I01
sS'parent'
p585
I01
sS'shall'
p586
I01
sS'may'
p587
I01
sS'upon'
p588
I01
sS'agreement'
p589
I01
sS'child'
p590
I01
sS'marital'
p591
I01
sS'payment'
p592
I01
sS'account'
p593
I01
sS'benefits'
p594
I01
sS'wife'
p595
I01
sS'time'
p596
I01
sS'property'
p597
I01
sS'agree'
p598
I01
sS'husband'
p599
I01
sg32
tp600
a((dp601
S'right'
p602
I01
sS'proprietary'
p603
I01
sS'taste'
p604
I01
sS'ii'
p605
I01
sS'including'
p606
I01
sS'philly'
p607
I01
sS'use'
p608
I01
sS'franchisor'
p609
I01
sS'section'
p610
I01
sS'means'
p611
I01
sS'system'
p612
I01
sg207
I01
sg78
I01
sS'marks'
p613
I01
sS'party'
p614
I01
sS'business'
p615
I01
sS'shall'
p616
I01
sS'may'
p617
I01
sS'agreement'
p618
I01
sS'affiliates'
p619
I01
sS'law'
p620
I01
sS'franchisee'
p621
I01
sS'must'
p622
I01
sg27
I01
sS'restaurant'
p623
I01
sS'applicable'
p624
I01
sS'standards'
p625
I01
sS'termination'
p626
I01
sS'property'
p627
I01
sS'restaurants'
p628
I01
sg32
tp629
a((dp630
S'domestic'
p631
I01
sS'employment'
p632
I01
sS'end'
p633
I01
sS'etc'
p634
I01
sS'pay'
p635
I01
sS'workers'
p636
I01
sS'per'
p637
I01
sS'employer'
p638
I01
sS'start'
p639
I01
sS'weeks'
p640
I01
sS'pm'
p641
I01
sS'week'
p642
I01
sS'notice'
p643
I01
sS'description'
p644
I01
sS'worker'
p645
I01
sS'agreement'
p646
I01
sS'paid'
p647
I01
sS'hours'
p648
I01
sS'date'
p649
I01
sS'day'
p650
I01
sS'specify'
p651
I01
sg26
I01
sS'name'
p652
I01
sS'g'
p653
I01
sS'receive'
p654
I01
sS'work'
p655
I01
sS'leave'
p656
I01
sS'unpaid'
p657
I01
sS'time'
p658
I01
sS'following'
p659
I01
sg32
tp660
a((dp661
S'year'
p662
I01
sS'pursuant'
p663
I01
sS'entrepreneur'
p664
I01
sS'parties'
p665
I01
sS'investment'
p666
I01
sS'section'
p667
I01
sS'means'
p668
I01
sg76
I01
sg207
I01
sg78
I01
sg424
I01
sS'asset'
p669
I01
sS'income'
p670
I01
sS'non'
p671
I01
sS'terms'
p672
I01
sS'option'
p673
I01
sS'shall'
p674
I01
sS'may'
p675
I01
sS'terminate'
p676
I01
sg234
I01
sS'agreement'
p677
I01
sS'date'
p678
I01
sS'investor'
p679
I01
sS'payment'
p680
I01
sS'assets'
p681
I01
sS'liquid'
p682
I01
sS'annual'
p683
I01
sS'amount'
p684
I01
sS'time'
p685
I01
sS'termination'
p686
I01
sg32
tp687
a((dp688
S'months'
p689
I01
sS'ea'
p690
I01
sS'rate'
p691
I01
sS'maternity'
p692
I01
sS'year'
p693
I01
sS'employment'
p694
I01
sS'working'
p695
I01
sS'pay'
p696
I01
sS'employer'
p697
I01
sg76
I01
sg207
I01
sg78
I01
sg424
I01
sg208
I01
sg234
I01
sS'employee'
p698
I01
sS'entitled'
p699
I01
sS'week'
p700
I01
sS'shall'
p701
I01
sS'agreement'
p702
I01
sS'paid'
p703
I01
sS'hours'
p704
I01
sS'child'
p705
I01
sS'day'
p706
I01
sS'11'
p707
I01
sS'12'
p708
I01
sS'work'
p709
I01
sS'days'
p710
I01
sS'leave'
p711
I01
sS'time'
p712
I01
sg32
tp713
a((dp714
S'firm'
p715
I01
sS'mn'
p716
I01
sS'ucp'
p717
I01
sS'dbe'
p718
I01
sS'prot'
p719
I01
sS'program'
p720
I01
sS'safety'
p721
I01
sS'template'
p722
I01
sS'include'
p723
I01
sS'type'
p724
I01
sS'development'
p725
I01
sS'business'
p726
I01
sS'company'
p727
I01
sS'agreement'
p728
I01
sS'hours'
p729
I01
sS'construction'
p730
I01
sS'date'
p731
I01
sS'president'
p732
I01
sS'must'
p733
I01
sS'received'
p734
I01
sS'training'
p735
I01
sS'name'
p736
I01
sg653
I01
sS'receive'
p737
I01
sS'work'
p738
I01
sS'contract'
p739
I01
sS'project'
p740
I01
sS'conducted'
p741
I01
sS'mentor'
p742
I01
sS'following'
p743
I01
sg32
tp744
a((dp745
S'right'
p746
I01
sS'consent'
p747
I01
sS'assigned'
p748
I01
sS'cooperative'
p749
I01
sS'parties'
p750
I01
sS'hereinafter'
p751
I01
sS'agrees'
p752
I01
sS'use'
p753
I01
sS'27'
p754
I01
sS'copyright'
p755
I01
sS'author'
p756
I01
sS'uwex'
p757
I01
sS'system'
p758
I01
sS'writing'
p759
I01
sS'written'
p760
I01
sS'regents'
p761
I01
sS'copyrights'
p762
I01
sS'board'
p763
I01
sS'wisconsin'
p764
I01
sS'shall'
p765
I01
sS'may'
p766
I01
sS'material'
p767
I01
sS'agreement'
p768
I01
sS'behalf'
p769
I01
sS'permissions'
p770
I01
sS'extension'
p771
I01
sS'rights'
p772
I01
sS'university'
p773
I01
sS'work'
p774
I01
sS'reasonable'
p775
I01
sg32
tp776
a((dp777
S'disclosure'
p778
I01
sS'confidentiality'
p779
I01
sS'disclosing'
p780
I01
sS'ipr'
p781
I01
sS'parties'
p782
I01
sS'eu'
p783
I01
sS'information'
p784
I01
sS'business'
p785
I01
sS'helpdesk'
p786
I01
sg76
I01
sg207
I01
sg78
I01
sg208
I01
sS'9'
p787
I01
sS'breach'
p788
I01
sS'receiving'
p789
I01
sS'european'
p790
I01
sS'non'
p791
I01
sS'terms'
p792
I01
sS'confidential'
p793
I01
sS'shall'
p794
I01
sS'may'
p795
I01
sS'agreement'
p796
I01
sS'purpose'
p797
I01
sS'party'
p798
I01
sS'provided'
p799
I01
sS'insert'
p800
I01
sS'disclosed'
p801
I01
sS'project'
p802
I01
sS'page'
p803
I01
sg32
tp804
a((dp805
S'code'
p806
I01
sS'dwelling'
p807
I01
sS'consent'
p808
I01
sS'terminate'
p809
I01
sS'month'
p810
I01
sS'agents'
p811
I01
sS'agrees'
p812
I01
sS'unit'
p813
I01
sS'use'
p814
I01
sS'written'
p815
I01
sS'may'
p816
I01
sS'state'
p817
I01
sS'except'
p818
I01
sS'lease'
p819
I01
sS'notice'
p820
I01
sS'shall'
p821
I01
sS'premises'
p822
I01
sS'upon'
p823
I01
sS'agreement'
p824
I01
sS'utilities'
p825
I01
sS'phone'
p826
I01
sS'address'
p827
I01
sS'damage'
p828
I01
sS'day'
p829
I01
sS'tenant'
p830
I01
sS'without'
p831
I01
sS'deposit'
p832
I01
sS'landlord'
p833
I01
sS'signature'
p834
I01
sS'property'
p835
I01
sg32
tp836
a((dp837
S'clause'
p838
I01
sS'licensed'
p839
I01
sS'parties'
p840
I01
sS'20'
p841
I01
sS'22'
p842
I01
sS'patent'
p843
I01
sS'juin'
p844
I01
sg78
I01
sg208
I01
sS'party'
p845
I01
sS'territory'
p846
I01
sS'2011'
p847
I01
sS'may'
p848
I01
sS'june'
p849
I01
sS'agreement'
p850
I01
sS'bms'
p851
I01
sS'sublicensee'
p852
I01
sS'mpp'
p853
I01
sS'compound'
p854
I01
sS'date'
p855
I01
sg26
I01
sS'14'
p856
I01
sS'rights'
p857
I01
sS'1998'
p858
I01
sS'30'
p859
I01
sS'2001'
p860
I01
sS'products'
p861
I01
sS'sublicense'
p862
I01
sS'2005'
p863
I01
sS'2008'
p864
I01
sg32
tp865
a((dp866
S'industrial'
p867
I01
sS'obligations'
p868
I01
sS'herein'
p869
I01
sS'parties'
p870
I01
sS'dakota'
p871
I01
sS'terms'
p872
I01
sS'agrees'
p873
I01
sS'fails'
p874
I01
sS'written'
p875
I01
sS'contractor'
p876
I01
sS'commission'
p877
I01
sS'state'
p878
I01
sS'authorized'
p879
I01
sS'performance'
p880
I01
sS'notice'
p881
I01
sS'north'
p882
I01
sS'provisions'
p883
I01
sS'shall'
p884
I01
sS'may'
p885
I01
sS'upon'
p886
I01
sS'agreement'
p887
I01
sS'report'
p888
I01
sS'consideration'
p889
I01
sS'behalf'
p890
I01
sS'rights'
p891
I01
sS'technical'
p892
I01
sS'employees'
p893
I01
sS'work'
p894
I01
sS'contract'
p895
I01
sS'page'
p896
I01
sg32
tp897
a((dp898
S'www'
p899
I01
sS'co'
p900
I01
sS'manuscript'
p901
I01
sS'reference'
p902
I01
sS'owner'
p903
I01
sS'elsevier'
p904
I01
sS'use'
p905
I01
sS'publication'
p906
I01
sS'copyright'
p907
I01
sS'author'
p908
I01
sS'personal'
p909
I01
sS'review'
p910
I01
sS'please'
p911
I01
sS'research'
p912
I01
sS'sharing'
p913
I01
sS'government'
p914
I01
sS'journal'
p915
I01
sS'commercial'
p916
I01
sS'agreement'
p917
I01
sS'authors'
p918
I01
sS'article'
p919
I01
sS'accepted'
p920
I01
sS'supplemental'
p921
I01
sS'publisher'
p922
I01
sS'rights'
p923
I01
sS'employees'
p924
I01
sS'us'
p925
I01
sS'materials'
p926
I01
sS'published'
p927
I01
sS'com'
p928
I01
sg32
tp929
a((dp930
S'co'
p931
I01
sS'one'
p932
I01
sS'parties'
p933
I01
sS'children'
p934
I01
sS'issues'
p935
I01
sS'use'
p936
I01
sS'section'
p937
I01
sS'legal'
p938
I01
sS'costs'
p939
I01
sS'parents'
p940
I01
sS'include'
p941
I01
sS'life'
p942
I01
sS'parent'
p943
I01
sS'shall'
p944
I01
sS'may'
p945
I01
sS'custodial'
p946
I01
sS'agreement'
p947
I01
sS'parenting'
p948
I01
sS'child'
p949
I01
sS'expenses'
p950
I01
sS'care'
p951
I01
sS'school'
p952
I01
sg246
I01
sg653
I01
sS'language'
p953
I01
sS'wish'
p954
I01
sS'together'
p955
I01
sS'future'
p956
I01
sS'time'
p957
I01
sS'agree'
p958
I01
sg32
tp959
a((dp960
S'associated'
p961
I01
sS'landowner'
p962
I01
sS'agreed'
p963
I01
sS'purposes'
p964
I01
sS'month'
p965
I01
sS'unless'
p966
I01
sS'agrees'
p967
I01
sS'fee'
p968
I01
sS'pay'
p969
I01
sS'per'
p970
I01
sS'insurance'
p971
I01
sS'late'
p972
I01
sS'party'
p973
I01
sS'lease'
p974
I01
sS'activities'
p975
I01
sS'notice'
p976
I01
sS'terms'
p977
I01
sS'parcel'
p978
I01
sS'provisions'
p979
I01
sS'shall'
p980
I01
sS'may'
p981
I01
sS'agreement'
p982
I01
sS'plan'
p983
I01
sS'date'
p984
I01
sS'tenant'
p985
I01
sS'term'
p986
I01
sS'land'
p987
I01
sS'default'
p988
I01
sS'practices'
p989
I01
sS'either'
p990
I01
sg32
tp991
a((dp992
S'writer'
p993
I01
sS'proprietary'
p994
I01
sS'services'
p995
I01
sS'right'
p996
I01
sS'invoice'
p997
I01
sS'agrees'
p998
I01
sS'completion'
p999
I01
sS'information'
p1000
I01
sS'use'
p1001
I01
sS'pay'
p1002
I01
sS'freelance'
p1003
I01
sS'responsible'
p1004
I01
sS'written'
p1005
I01
sS'per'
p1006
I01
sS'writing'
p1007
I01
sS'state'
p1008
I01
sS'shall'
p1009
I01
sS'completed'
p1010
I01
sS'upon'
p1011
I01
sS'agreement'
p1012
I01
sS'date'
p1013
I01
sS'approval'
p1014
I01
sS'payment'
p1015
I01
sS'work'
p1016
I01
sS'contract'
p1017
I01
sS'project'
p1018
I01
sS'client'
p1019
I01
sS'following'
p1020
I01
sS'changes'
p1021
I01
sS'agree'
p1022
I01
sg32
tp1023
a((dp1024
S'claim'
p1025
I01
sS'fees'
p1026
I01
sS'licensee'
p1027
I01
sS'licensed'
p1028
I01
sS'export'
p1029
I01
sS'parties'
p1030
I01
sS'agrees'
p1031
I01
sS'subject'
p1032
I01
sS'use'
p1033
I01
sS'fee'
p1034
I01
sS'copyright'
p1035
I01
sS'copies'
p1036
I01
sS'event'
p1037
I01
sS'infringement'
p1038
I01
sS'program'
p1039
I01
sS'maintenance'
p1040
I01
sS'forth'
p1041
I01
sS'form'
p1042
I01
sS'shall'
p1043
I01
sS'may'
p1044
I01
sS'agreement'
p1045
I01
sS'liability'
p1046
I01
sS'part'
p1047
I01
sS'hereunder'
p1048
I01
sS'license'
p1049
I01
sS'programs'
p1050
I01
sS'near'
p1051
I01
sS'termination'
p1052
I01
sS'licensor'
p1053
I01
sS'software'
p1054
I01
sg32
tp1055
a((dp1056
S'supervisor'
p1057
I01
sS'site'
p1058
I01
sS'related'
p1059
I01
sS'intern'
p1060
I01
sS'including'
p1061
I01
sS'result'
p1062
I01
sS'learning'
p1063
I01
sS'wages'
p1064
I01
sS'trust'
p1065
I01
sS'employment'
p1066
I01
sS'agrees'
p1067
I01
sS'guarantee'
p1068
I01
sS'educational'
p1069
I01
sS'death'
p1070
I01
sS'program'
p1071
I01
sS'employee'
p1072
I01
sS'injury'
p1073
I01
sS'internship'
p1074
I01
sS'company'
p1075
I01
sS'agreement'
p1076
I01
sS'sustained'
p1077
I01
sS'10'
p1078
I01
sS'appropriate'
p1079
I01
sS'experience'
p1080
I01
sS'unpaid'
p1081
I01
sS'compensation'
p1082
I01
sS'without'
p1083
I01
sS'learn'
p1084
I01
sS'property'
p1085
I01
sS'page'
p1086
I01
sg32
tp1087
a((dp1088
S'thereof'
p1089
I01
sS'rent'
p1090
I01
sS'insurance'
p1091
I01
sS'provided'
p1092
I01
sS'use'
p1093
I01
sS'additional'
p1094
I01
sS'damage'
p1095
I01
sS'event'
p1096
I01
sS'may'
p1097
I01
sS'hereof'
p1098
I01
sS'conditions'
p1099
I01
sS'lease'
p1100
I01
sS'notice'
p1101
I01
sS'terms'
p1102
I01
sS'provisions'
p1103
I01
sS'shall'
p1104
I01
sS'premises'
p1105
I01
sS'upon'
p1106
I01
sS'covenants'
p1107
I01
sS'part'
p1108
I01
sS'date'
p1109
I01
sS'article'
p1110
I01
sS'tenant'
p1111
I01
sS'building'
p1112
I01
sS'hereunder'
p1113
I01
sS'term'
p1114
I01
sS'fixed'
p1115
I01
sS'landlord'
p1116
I01
sS'time'
p1117
I01
sS'expense'
p1118
I01
sg32
tp1119
a((dp1120
S'right'
p1121
I01
sS'third'
p1122
I01
sS'licensee'
p1123
I01
sS'licensed'
p1124
I01
sS'parties'
p1125
I01
sS'quality'
p1126
I01
sS'agrees'
p1127
I01
sS'use'
p1128
I01
sS'title'
p1129
I01
sS'trademark'
p1130
I01
sS'mark'
p1131
I01
sS'infringement'
p1132
I01
sS'written'
p1133
I01
sS'party'
p1134
I01
sS'notice'
p1135
I01
sS'shall'
p1136
I01
sS'may'
p1137
I01
sS'upon'
p1138
I01
sS'agreement'
p1139
I01
sg27
I01
sS'law'
p1140
I01
sS'term'
p1141
I01
sS'goods'
p1142
I01
sS'name'
p1143
I01
sS'license'
p1144
I01
sS'standards'
p1145
I01
sS'without'
p1146
I01
sS'action'
p1147
I01
sS'termination'
p1148
I01
sS'licensor'
p1149
I01
sg32
tp1150
a((dp1151
S'set'
p1152
I01
sS'parties'
p1153
I01
sS'terminate'
p1154
I01
sS'sales'
p1155
I01
sS'hereto'
p1156
I01
sS'distributor'
p1157
I01
sS'said'
p1158
I01
sS'state'
p1159
I01
sS'hereof'
p1160
I01
sS'supplier'
p1161
I01
sS'breach'
p1162
I01
sS'territory'
p1163
I01
sS'notice'
p1164
I01
sS'shall'
p1165
I01
sS'may'
p1166
I01
sS'price'
p1167
I01
sS'upon'
p1168
I01
sS'agreement'
p1169
I01
sS'effect'
p1170
I01
sS'party'
p1171
I01
sS'date'
p1172
I01
sS'rives'
p1173
I01
sS'change'
p1174
I01
sS'made'
p1175
I01
sS'months'
p1176
I01
sS'days'
p1177
I01
sS'products'
p1178
I01
sS'either'
p1179
I01
sS'termination'
p1180
I01
sS'distribution'
p1181
I01
sg32
tp1182
a((dp1183
S'right'
p1184
I01
sS'lessor'
p1185
I01
sS'terminate'
p1186
I01
sS'herein'
p1187
I01
sS'county'
p1188
I01
sS'guests'
p1189
I01
sS'lessees'
p1190
I01
sS'hereinafter'
p1191
I01
sS'subject'
p1192
I01
sS'hunting'
p1193
I01
sS'abide'
p1194
I01
sS'hereof'
p1195
I01
sS'timber'
p1196
I01
sS'conditions'
p1197
I01
sS'lease'
p1198
I01
sS'terms'
p1199
I01
sS'shall'
p1200
I01
sS'premises'
p1201
I01
sS'leased'
p1202
I01
sS'upon'
p1203
I01
sS'agreement'
p1204
I01
sS'paid'
p1205
I01
sS'game'
p1206
I01
sS'members'
p1207
I01
sS'day'
p1208
I01
sS'hereunder'
p1209
I01
sS'made'
p1210
I01
sS'lessee'
p1211
I01
sS'organization'
p1212
I01
sS'alabama'
p1213
I01
sg32
tp1214
a((dp1215
S'required'
p1216
I01
sS'pays'
p1217
I01
sS'household'
p1218
I01
sS'move'
p1219
I01
sS'month'
p1220
I01
sS'code'
p1221
I01
sS'rent'
p1222
I01
sS'owner'
p1223
I01
sS'principal'
p1224
I01
sS'repairs'
p1225
I01
sS'use'
p1226
I01
sS'lead'
p1227
I01
sS'monthly'
p1228
I01
sS'decision'
p1229
I01
sS'written'
p1230
I01
sg207
I01
sS'shall'
p1231
I01
sS'may'
p1232
I01
sS'agreement'
p1233
I01
sS'paid'
p1234
I01
sS'cleaning'
p1235
I01
sS'tenant'
p1236
I01
sg27
I01
sS'dollars'
p1237
I01
sS'bill'
p1238
I01
sS'days'
p1239
I01
sS'deposit'
p1240
I01
sS'landlord'
p1241
I01
sS'pdf'
p1242
I01
sS'security'
p1243
I01
sg32
tp1244
a((dp1245
S'parties'
p1246
I01
sS'terminate'
p1247
I01
sS'month'
p1248
I01
sS'hereto'
p1249
I01
sS'employment'
p1250
I01
sS'information'
p1251
I01
sS'ontario'
p1252
I01
sS'employer'
p1253
I01
sS'employee'
p1254
I01
sS'party'
p1255
I01
sS'advance'
p1256
I01
sS'duties'
p1257
I01
sS'province'
p1258
I01
sS'notice'
p1259
I01
sS'provisions'
p1260
I01
sS'shall'
p1261
I01
sS'may'
p1262
I01
sS'agreement'
p1263
I01
sS'matters'
p1264
I01
sS'part'
p1265
I01
sS'day'
p1266
I01
sS'successor'
p1267
I01
sS'hereunder'
p1268
I01
sS'term'
p1269
I01
sg27
I01
sS'benefit'
p1270
I01
sS'either'
p1271
I01
sS'time'
p1272
I01
sS'following'
p1273
I01
sS'termination'
p1274
I01
sg32
tp1275
a((dp1276
S'screenplay'
p1277
I01
sS'producer'
p1278
I01
sS'agreed'
p1279
I01
sS'telephone'
p1280
I01
sS'wardrobe'
p1281
I01
sS'employment'
p1282
I01
sS'agrees'
p1283
I01
sS'film'
p1284
I01
sS'provided'
p1285
I01
sS'use'
p1286
I01
sS'end'
p1287
I01
sS'provide'
p1288
I01
sS'hereinafter'
p1289
I01
sS'actor'
p1290
I01
sS'role'
p1291
I01
sS'terms'
p1292
I01
sS'shall'
p1293
I01
sS'may'
p1294
I01
sS'upon'
p1295
I01
sS'agreement'
p1296
I01
sS'address'
p1297
I01
sS'date'
p1298
I01
sS'copy'
p1299
I01
sS'day'
p1300
I01
sS'term'
p1301
I01
sS'required'
p1302
I01
sS'days'
p1303
I01
sS'project'
p1304
I01
sS'services'
p1305
I01
sS'either'
p1306
I01
sg32
tp1307
a((dp1308
S'right'
p1309
I01
sS'supervisor'
p1310
I01
sS'office'
p1311
I01
sS'sign'
p1312
I01
sS'provided'
p1313
I01
sS'form'
p1314
I01
sS'pay'
p1315
I01
sS'per'
p1316
I01
sS'equipment'
p1317
I01
sS'responsibilities'
p1318
I01
sS'program'
p1319
I01
sS'employee'
p1320
I01
sS'teleworking'
p1321
I01
sS'complete'
p1322
I01
sS'business'
p1323
I01
sS'read'
p1324
I01
sS'company'
p1325
I01
sS'hours'
p1326
I01
sS'understand'
p1327
I01
sS'telework'
p1328
I01
sg78
I01
sS'day'
p1329
I01
sS'must'
p1330
I01
sS'teleworker'
p1331
I01
sS'follows'
p1332
I01
sS'work'
p1333
I01
sS'days'
p1334
I01
sS'time'
p1335
I01
sS'following'
p1336
I01
sS'agree'
p1337
I01
sg32
tp1338
a((dp1339
S'hereto'
p1340
I01
sS'pursuant'
p1341
I01
sS'herein'
p1342
I01
sS'county'
p1343
I01
sS'parties'
p1344
I01
sg26
I01
sS'contractor'
p1345
I01
sg76
I01
sg207
I01
sg78
I01
sg424
I01
sS'attachment'
p1346
I01
sS'interest'
p1347
I01
sS'party'
p1348
I01
sg208
I01
sS'7'
p1349
I01
sS'provisions'
p1350
I01
sS'shall'
p1351
I01
sS'may'
p1352
I01
sS'upon'
p1353
I01
sS'agreement'
p1354
I01
sg27
I01
sS'8'
p1355
I01
sS'services'
p1356
I01
sS'provision'
p1357
I01
sS'term'
p1358
I01
sS'made'
p1359
I01
sS'required'
p1360
I01
sS'time'
p1361
I01
sS'page'
p1362
I01
sg32
tp1363
a((dp1364
S'disclosure'
p1365
I01
sS'limited'
p1366
I01
sS'violation'
p1367
I01
sS'trade'
p1368
I01
sS'parties'
p1369
I01
sS'agrees'
p1370
I01
sS'information'
p1371
I01
sS'confidential'
p1372
I01
sS'shall'
p1373
I01
sS'except'
p1374
I01
sS'disclosed'
p1375
I01
sS'samples'
p1376
I01
sS'breach'
p1377
I01
sS'receiving'
p1378
I01
sS'business'
p1379
I01
sS'provided'
p1380
I01
sS'may'
p1381
I01
sS'company'
p1382
I01
sS'upon'
p1383
I01
sS'agreement'
p1384
I01
sS'purpose'
p1385
I01
sS'party'
p1386
I01
sS'date'
p1387
I01
sS'permitted'
p1388
I01
sS'third'
p1389
I01
sS'employees'
p1390
I01
sS'without'
p1391
I01
sS'products'
p1392
I01
sS'place'
p1393
I01
sS'property'
p1394
I01
sg32
tp1395
a((dp1396
S'right'
p1397
I01
sS'supply'
p1398
I01
sS'athletic'
p1399
I01
sS'year'
p1400
I01
sS'including'
p1401
I01
sS'parties'
p1402
I01
sS'staff'
p1403
I01
sS'use'
p1404
I01
sS'nike'
p1405
I01
sS'trademark'
p1406
I01
sS'sponsorship'
p1407
I01
sS'written'
p1408
I01
sS'program'
p1409
I01
sS'party'
p1410
I01
sS'subject'
p1411
I01
sS'product'
p1412
I01
sS'terms'
p1413
I01
sS'asu'
p1414
I01
sS'shall'
p1415
I01
sS'may'
p1416
I01
sS'agreement'
p1417
I01
sS'game'
p1418
I01
sS'000'
p1419
I01
sS'term'
p1420
I01
sS'license'
p1421
I01
sS'university'
p1422
I01
sS'contract'
p1423
I01
sS'products'
p1424
I01
sS'footwear'
p1425
I01
sS'team'
p1426
I01
sg32
tp1427
a((dp1428
S'opioid'
p1429
I01
sS'consent'
p1430
I01
sS'psychological'
p1431
I01
sS'patient'
p1432
I01
sS'physical'
p1433
I01
sS'use'
p1434
I01
sS'medications'
p1435
I01
sS'doctor'
p1436
I01
sS'drugs'
p1437
I01
sg207
I01
sS'program'
p1438
I01
sS'treatment'
p1439
I01
sS'pain'
p1440
I01
sS'emergency'
p1441
I01
sS'prescribed'
p1442
I01
sS'may'
p1443
I01
sS'possible'
p1444
I01
sS'understand'
p1445
I01
sS'effects'
p1446
I01
sS'date'
p1447
I01
sS'day'
p1448
I01
sS'physician'
p1449
I01
sS'opioids'
p1450
I01
sS'taking'
p1451
I01
sS'drug'
p1452
I01
sS'keep'
p1453
I01
sS'signature'
p1454
I01
sS'following'
p1455
I01
sS'addiction'
p1456
I01
sS'side'
p1457
I01
sg32
tp1458
a((dp1459
S'event'
p1460
I01
sS'parties'
p1461
I01
sS'damage'
p1462
I01
sS'hereto'
p1463
I01
sS'japan'
p1464
I01
sS'hereinafter'
p1465
I01
sS'relating'
p1466
I01
sS'guarantee'
p1467
I01
sS'use'
p1468
I01
sS'written'
p1469
I01
sS'seller'
p1470
I01
sS'delay'
p1471
I01
sg207
I01
sS'hereof'
p1472
I01
sS'party'
p1473
I01
sS'deemed'
p1474
I01
sS'terms'
p1475
I01
sS'shall'
p1476
I01
sS'may'
p1477
I01
sS'price'
p1478
I01
sS'upon'
p1479
I01
sS'agreement'
p1480
I01
sS'buyer'
p1481
I01
sg78
I01
sS'article'
p1482
I01
sS'account'
p1483
I01
sS'contract'
p1484
I01
sS'without'
p1485
I01
sS'products'
p1486
I01
sS'inspection'
p1487
I01
sg32
tp1488
a((dp1489
S'obligations'
p1490
I01
sS'month'
p1491
I01
sS'buyer'
p1492
I01
sS'parties'
p1493
I01
sS'said'
p1494
I01
sS'seller'
p1495
I01
sS'written'
p1496
I01
sS'print'
p1497
I01
sS'exercise'
p1498
I01
sS'lease'
p1499
I01
sS'notice'
p1500
I01
sS'option'
p1501
I01
sS'shall'
p1502
I01
sS'premises'
p1503
I01
sS'leased'
p1504
I01
sS'utilities'
p1505
I01
sS'agreement'
p1506
I01
sS'date'
p1507
I01
sS'consideration'
p1508
I01
sS'sign'
p1509
I01
sS'tenant'
p1510
I01
sS'must'
p1511
I01
sS'purchase'
p1512
I01
sS'financing'
p1513
I01
sS'prior'
p1514
I01
sS'without'
p1515
I01
sS'services'
p1516
I01
sS'landlord'
p1517
I01
sS'closing'
p1518
I01
sS'property'
p1519
I01
sg32
tp1520
a((dp1521
S'dwelling'
p1522
I01
sS'give'
p1523
I01
sS'moved'
p1524
I01
sS'month'
p1525
I01
sS'written'
p1526
I01
sS'rent'
p1527
I01
sS'motor'
p1528
I01
sS'fees'
p1529
I01
sS'owner'
p1530
I01
sS'times'
p1531
I01
sS'repairs'
p1532
I01
sS'pay'
p1533
I01
sS'reasonable'
p1534
I01
sS'permission'
p1535
I01
sS'due'
p1536
I01
sS'live'
p1537
I01
sS'pets'
p1538
I01
sS'returned'
p1539
I01
sS'shall'
p1540
I01
sS'may'
p1541
I01
sS'agreement'
p1542
I01
sS'day'
p1543
I01
sS'tenant'
p1544
I01
sS'applicable'
p1545
I01
sS'keep'
p1546
I01
sS'clean'
p1547
I01
sS'following'
p1548
I01
sS'tenants'
p1549
I01
sS'agree'
p1550
I01
sS'first'
p1551
I01
sg32
tp1552
a((dp1553
S'landowner'
p1554
I01
sS'lessor'
p1555
I01
sS'actions'
p1556
I01
sS'guests'
p1557
I01
sS'agrees'
p1558
I01
sS'hunting'
p1559
I01
sS'area'
p1560
I01
sS'abide'
p1561
I01
sS'may'
p1562
I01
sS'written'
p1563
I01
sS'firearms'
p1564
I01
sS'dangers'
p1565
I01
sS'lease'
p1566
I01
sS'activities'
p1567
I01
sS'unless'
p1568
I01
sS'provisions'
p1569
I01
sS'shall'
p1570
I01
sS'premises'
p1571
I01
sS'upon'
p1572
I01
sS'hereby'
p1573
I01
sS'leased'
p1574
I01
sS'agreement'
p1575
I01
sS'liability'
p1576
I01
sS'date'
p1577
I01
sS'regulations'
p1578
I01
sS'rights'
p1579
I01
sS'damages'
p1580
I01
sS'lessee'
p1581
I01
sS'maintain'
p1582
I01
sS'property'
p1583
I01
sg32
tp1584
a((dp1585
S'executed'
p1586
I01
sS'mail'
p1587
I01
sS'hereto'
p1588
I01
sS'period'
p1589
I01
sS'parties'
p1590
I01
sS'insurance'
p1591
I01
sS'information'
p1592
I01
sS'use'
p1593
I01
sS'written'
p1594
I01
sS'program'
p1595
I01
sS'authorized'
p1596
I01
sS'employee'
p1597
I01
sS'party'
p1598
I01
sS'indiana'
p1599
I01
sS'publicity'
p1600
I01
sS'confidential'
p1601
I01
sS'shall'
p1602
I01
sS'agreement'
p1603
I01
sS'organization'
p1604
I01
sS'date'
p1605
I01
sS'approval'
p1606
I01
sS'made'
p1607
I01
sS'name'
p1608
I01
sS'purdue'
p1609
I01
sS'university'
p1610
I01
sS'prior'
p1611
I01
sS'without'
p1612
I01
sS'either'
p1613
I01
sS'termination'
p1614
I01
sS'property'
p1615
I01
sg32
tp1616
a((dp1617
S'issued'
p1618
I01
sS'disclosing'
p1619
I01
sS'pursuant'
p1620
I01
sS'parties'
p1621
I01
sS'agrees'
p1622
I01
sS'information'
p1623
I01
sS'use'
p1624
I01
sS'cornell'
p1625
I01
sS'shall'
p1626
I01
sS'shares'
p1627
I01
sS'event'
p1628
I01
sg76
I01
sg207
I01
sg78
I01
sg208
I01
sS'equity'
p1629
I01
sS'party'
p1630
I01
sS'mcgovern'
p1631
I01
sS'confidential'
p1632
I01
sS'provided'
p1633
I01
sS'may'
p1634
I01
sS'company'
p1635
I01
sS'agreement'
p1636
I01
sS'date'
p1637
I01
sS'article'
p1638
I01
sS'recipient'
p1639
I01
sS'center'
p1640
I01
sS'effective'
p1641
I01
sS'securities'
p1642
I01
sS'act'
p1643
I01
sg32
tp1644
a((dp1645
S'process'
p1646
I01
sS'parties'
p1647
I01
sS'xx'
p1648
I01
sS'including'
p1649
I01
sS'per'
p1650
I01
sS'fees'
p1651
I01
sS'educational'
p1652
I01
sS'proceeding'
p1653
I01
sS'district'
p1654
I01
sS'provide'
p1655
I01
sS'agency'
p1656
I01
sS'due'
p1657
I01
sS'legal'
p1658
I01
sS'compensatory'
p1659
I01
sS'state'
p1660
I01
sS'parents'
p1661
I01
sS'party'
p1662
I01
sS'shall'
p1663
I01
sS'upon'
p1664
I01
sS'agreement'
p1665
I01
sS'student'
p1666
I01
sS'services'
p1667
I01
sS'20'
p1668
I01
sS'11'
p1669
I01
sS'reimbursement'
p1670
I01
sS'school'
p1671
I01
sS'attorneys'
p1672
I01
sS'x'
p1673
I01
sS'page'
p1674
I01
sS'initials'
p1675
I01
sg32
tp1676
a((dp1677
S'agreed'
p1678
I01
sS'terminate'
p1679
I01
sS'period'
p1680
I01
sS'parties'
p1681
I01
sS'employment'
p1682
I01
sS'provided'
p1683
I01
sS'said'
p1684
I01
sS'legal'
p1685
I01
sS'employer'
p1686
I01
sS'written'
p1687
I01
sS'discretion'
p1688
I01
sS'employee'
p1689
I01
sS'duties'
p1690
I01
sS'notice'
p1691
I01
sS'shall'
p1692
I01
sS'may'
p1693
I01
sS'advice'
p1694
I01
sS'agreement'
p1695
I01
sS'obtain'
p1696
I01
sS'reason'
p1697
I01
sS'entire'
p1698
I01
sg26
I01
sg27
I01
sS'name'
p1699
I01
sS'prior'
p1700
I01
sS'without'
p1701
I01
sS'place'
p1702
I01
sS'time'
p1703
I01
sS'following'
p1704
I01
sS'termination'
p1705
I01
sg32
tp1706
a((dp1707
S'executive'
p1708
I01
sS'authority'
p1709
I01
sS'committee'
p1710
I01
sS'participate'
p1711
I01
sS'decisions'
p1712
I01
sS'agrees'
p1713
I01
sS'staff'
p1714
I01
sS'funding'
p1715
I01
sS'provide'
p1716
I01
sS'decision'
p1717
I01
sS'regularly'
p1718
I01
sS'activities'
p1719
I01
sS'risk'
p1720
I01
sS'collaborative'
p1721
I01
sS'may'
p1722
I01
sS'collaboration'
p1723
I01
sS'agreement'
p1724
I01
sS'joint'
p1725
I01
sS'leadership'
p1726
I01
sg1673
I01
sS'date'
p1727
I01
sS'organizations'
p1728
I01
sS'regarding'
p1729
I01
sS'work'
p1730
I01
sS'participating'
p1731
I01
sS'chief'
p1732
I01
sS'officer'
p1733
I01
sS'organization'
p1734
I01
sS'z'
p1735
I01
sS'agree'
p1736
I01
sg32
tp1737
a((dp1738
S'right'
p1739
I01
sS'distributor'
p1740
I01
sS'developer'
p1741
I01
sS'information'
p1742
I01
sS'use'
p1743
I01
sS'shall'
p1744
I01
sS'written'
p1745
I01
sg76
I01
sg207
I01
sg78
I01
sg424
I01
sS'damages'
p1746
I01
sS'party'
p1747
I01
sS'territory'
p1748
I01
sS'notice'
p1749
I01
sS'business'
p1750
I01
sS'hereunder'
p1751
I01
sS'may'
p1752
I01
sS'upon'
p1753
I01
sS'agreement'
p1754
I01
sS'breach'
p1755
I01
sS'date'
p1756
I01
sS'purchase'
p1757
I01
sS'13'
p1758
I01
sS'without'
p1759
I01
sS'products'
p1760
I01
sS'either'
p1761
I01
sS'time'
p1762
I01
sS'termination'
p1763
I01
sS'order'
p1764
I01
sg32
tp1765
a((dp1766
S'disclosure'
p1767
I01
sS'45'
p1768
I01
sS'facility'
p1769
I01
sS'obligations'
p1770
I01
sS'entity'
p1771
I01
sS'notwithstanding'
p1772
I01
sS'apply'
p1773
I01
sS'event'
p1774
I01
sS'information'
p1775
I01
sS'use'
p1776
I01
sS'privacy'
p1777
I01
sS'shall'
p1778
I01
sS'health'
p1779
I01
sS'breach'
p1780
I01
sS'phi'
p1781
I01
sS'return'
p1782
I01
sS'business'
p1783
I01
sS'associate'
p1784
I01
sS'upon'
p1785
I01
sS'agreement'
p1786
I01
sS'regulations'
p1787
I01
sS'covered'
p1788
I01
sS'164'
p1789
I01
sS'hipaa'
p1790
I01
sS'comply'
p1791
I01
sg246
I01
sS'standards'
p1792
I01
sS'protected'
p1793
I01
sS'officer'
p1794
I01
sS'termination'
p1795
I01
sg32
tp1796
a((dp1797
S'lease'
p1798
I01
sS'landowner'
p1799
I01
sS'lessor'
p1800
I01
sS'lessees'
p1801
I01
sS'month'
p1802
I01
sS'guests'
p1803
I01
sS'year'
p1804
I01
sS'premises'
p1805
I01
sS'hunting'
p1806
I01
sS'hereinafter'
p1807
I01
sS'state'
p1808
I01
sS'located'
p1809
I01
sg207
I01
sg78
I01
sg208
I01
sS'cause'
p1810
I01
sS'damages'
p1811
I01
sS'shall'
p1812
I01
sS'may'
p1813
I01
sS'upon'
p1814
I01
sS'leased'
p1815
I01
sS'agreement'
p1816
I01
sS'paid'
p1817
I01
sS'game'
p1818
I01
sS'day'
p1819
I01
sS'animals'
p1820
I01
sS'rights'
p1821
I01
sS'lessee'
p1822
I01
sS'limit'
p1823
I01
sS'property'
p1824
I01
sg32
tp1825
a((dp1826
S'right'
p1827
I01
sS'text'
p1828
I01
sS'period'
p1829
I01
sS'sponsor'
p1830
I01
sS'composer'
p1831
I01
sS'parties'
p1832
I01
sS'agrees'
p1833
I01
sS'use'
p1834
I01
sS'score'
p1835
I01
sS'copyright'
p1836
I01
sS'permission'
p1837
I01
sg207
I01
sS'program'
p1838
I01
sS'attachment'
p1839
I01
sS'performance'
p1840
I01
sS'composition'
p1841
I01
sS'shall'
p1842
I01
sS'premiere'
p1843
I01
sS'upon'
p1844
I01
sS'agreement'
p1845
I01
sS'letter'
p1846
I01
sS'party'
p1847
I01
sS'date'
p1848
I01
sS'must'
p1849
I01
sg26
I01
sg27
I01
sS'rights'
p1850
I01
sS'parts'
p1851
I01
sS'recording'
p1852
I01
sS'residency'
p1853
I01
sg32
tp1854
a((dp1855
S'operations'
p1856
I01
sS'less'
p1857
I01
sS'obtain'
p1858
I01
sS'one'
p1859
I01
sS'services'
p1860
I01
sS'subcontractor'
p1861
I01
sS'including'
p1862
I01
sS'performed'
p1863
I01
sS'injuries'
p1864
I01
sS'insurance'
p1865
I01
sS'death'
p1866
I01
sS'personal'
p1867
I01
sS'damage'
p1868
I01
sS'legal'
p1869
I01
sS'contractor'
p1870
I01
sS'500'
p1871
I01
sS'shall'
p1872
I01
sS'may'
p1873
I01
sS'hereby'
p1874
I01
sS'agreement'
p1875
I01
sS'liability'
p1876
I01
sS'000'
p1877
I01
sS'date'
p1878
I01
sS'article'
p1879
I01
sS'general'
p1880
I01
sS'employees'
p1881
I01
sS'work'
p1882
I01
sS'claims'
p1883
I01
sS'property'
p1884
I01
sS'arising'
p1885
I01
sg32
tp1886
a((dp1887
S'purchaser'
p1888
I01
sS'money'
p1889
I01
sS'within'
p1890
I01
sS'existing'
p1891
I01
sS'close'
p1892
I01
sS'home'
p1893
I01
sS'based'
p1894
I01
sS'shall'
p1895
I01
sS'seller'
p1896
I01
sg424
I01
sS'new'
p1897
I01
sS'notice'
p1898
I01
sS'offer'
p1899
I01
sS'may'
p1900
I01
sS'price'
p1901
I01
sS'upon'
p1902
I01
sS'agreement'
p1903
I01
sS'earnest'
p1904
I01
sS'condition'
p1905
I01
sS'purchase'
p1906
I01
sS'sale'
p1907
I01
sS'contract'
p1908
I01
sS'prior'
p1909
I01
sS'survey'
p1910
I01
sS'time'
p1911
I01
sS'closing'
p1912
I01
sS'property'
p1913
I01
sS'inspection'
p1914
I01
sS'page'
p1915
I01
sS'initials'
p1916
I01
sg32
tp1917
a((dp1918
S'duquesne'
p1919
I01
sS'partnership'
p1920
I01
sS'sbdc'
p1921
I01
sS'financial'
p1922
I01
sS'accounts'
p1923
I01
sS'parties'
p1924
I01
sS'partner'
p1925
I01
sS'contributions'
p1926
I01
sS'partners'
p1927
I01
sS'death'
p1928
I01
sS'end'
p1929
I01
sS'except'
p1930
I01
sS'interest'
p1931
I01
sS'capital'
p1932
I01
sS'smart'
p1933
I01
sS'business'
p1934
I01
sS'shall'
p1935
I01
sS'may'
p1936
I01
sS'upon'
p1937
I01
sS'agreement'
p1938
I01
sS'date'
p1939
I01
sS'provided'
p1940
I01
sS'purchase'
p1941
I01
sS'account'
p1942
I01
sS'made'
p1943
I01
sS'name'
p1944
I01
sS'university'
p1945
I01
sS'losses'
p1946
I01
sS'time'
p1947
I01
sS'deceased'
p1948
I01
sg32
tp1949
a((dp1950
S'control'
p1951
I01
sS'certification'
p1952
I01
sS'agreed'
p1953
I01
sS'memorandum'
p1954
I01
sS'agent'
p1955
I01
sS'hiring'
p1956
I01
sS'including'
p1957
I01
sS'performed'
p1958
I01
sS'parties'
p1959
I01
sS'insurance'
p1960
I01
sS'completion'
p1961
I01
sS'use'
p1962
I01
sS'sub'
p1963
I01
sS'working'
p1964
I01
sS'factors'
p1965
I01
sS'perform'
p1966
I01
sS'contractor'
p1967
I01
sS'statement'
p1968
I01
sS'independent'
p1969
I01
sS'relationship'
p1970
I01
sS'may'
p1971
I01
sS'agreement'
p1972
I01
sS'job'
p1973
I01
sS'payment'
p1974
I01
sS'name'
p1975
I01
sS'work'
p1976
I01
sS'contract'
p1977
I01
sS'project'
p1978
I01
sS'materials'
p1979
I01
sS'done'
p1980
I01
sg32
tp1981
a((dp1982
S'executed'
p1983
I01
sS'rents'
p1984
I01
sS'loan'
p1985
I01
sS'authority'
p1986
I01
sS'county'
p1987
I01
sS'assignee'
p1988
I01
sS'individual'
p1989
I01
sS'right'
p1990
I01
sS'operation'
p1991
I01
sS'documents'
p1992
I01
sS'instrument'
p1993
I01
sS'due'
p1994
I01
sS'premises'
p1995
I01
sS'state'
p1996
I01
sS'new'
p1997
I01
sS'collateral'
p1998
I01
sS'terms'
p1999
I01
sS'provisions'
p2000
I01
sS'shall'
p2001
I01
sS'may'
p2002
I01
sS'assignment'
p2003
I01
sS'upon'
p2004
I01
sS'york'
p2005
I01
sS'personally'
p2006
I01
sS'leases'
p2007
I01
sS'assignor'
p2008
I01
sS'name'
p2009
I01
sS'rights'
p2010
I01
sS'default'
p2011
I01
sS'become'
p2012
I01
sg32
tp2013
a((dp2014
S'set'
p2015
I01
sS'golf'
p2016
I01
sS'dissolution'
p2017
I01
sS'partnership'
p2018
I01
sS'domestic'
p2019
I01
sS'account'
p2020
I01
sS'community'
p2021
I01
sS'one'
p2022
I01
sS'smedlap'
p2023
I01
sS'partner'
p2024
I01
sS'pat'
p2025
I01
sS'debts'
p2026
I01
sg76
I01
sS'parts'
p2027
I01
sg208
I01
sS'agreement'
p2028
I01
sS'part'
p2029
I01
sS'chris'
p2030
I01
sg78
I01
sS'debt'
p2031
I01
sS'furniture'
p2032
I01
sg26
I01
sg27
I01
sg246
I01
sS'us'
p2033
I01
sS'summary'
p2034
I01
sS'2003'
p2035
I01
sS'marriage'
p2036
I01
sS'property'
p2037
I01
sS'called'
p2038
I01
sg32
tp2039
a((dp2040
S'right'
p2041
I01
sS'notice'
p2042
I01
sS'licensee'
p2043
I01
sS'offerings'
p2044
I01
sS'parties'
p2045
I01
sS'logo'
p2046
I01
sS'quality'
p2047
I01
sS'agrees'
p2048
I01
sS'use'
p2049
I01
sS'service'
p2050
I01
sS'xbrl'
p2051
I01
sS'mark'
p2052
I01
sS'specifications'
p2053
I01
sS'written'
p2054
I01
sS'party'
p2055
I01
sS'product'
p2056
I01
sS'shall'
p2057
I01
sS'may'
p2058
I01
sS'upon'
p2059
I01
sS'agreement'
p2060
I01
sS'new'
p2061
I01
sS'international'
p2062
I01
sS'respect'
p2063
I01
sS'comply'
p2064
I01
sS'license'
p2065
I01
sS'breach'
p2066
I01
sS'either'
p2067
I01
sS'time'
p2068
I01
sS'licensor'
p2069
I01
sS'otherwise'
p2070
I01
sg32
tp2071
a((dp2072
S'purchaser'
p2073
I01
sS'acceptance'
p2074
I01
sS'estate'
p2075
I01
sS'money'
p2076
I01
sS'existing'
p2077
I01
sS'offer'
p2078
I01
sS'subject'
p2079
I01
sS'20'
p2080
I01
sS'mortgage'
p2081
I01
sS'title'
p2082
I01
sS'pay'
p2083
I01
sS'sale'
p2084
I01
sS'seller'
p2085
I01
sS'conditions'
p2086
I01
sS'real'
p2087
I01
sS'shall'
p2088
I01
sS'price'
p2089
I01
sS'agreement'
p2090
I01
sS'paid'
p2091
I01
sS'earnest'
p2092
I01
sS'date'
p2093
I01
sS'accepted'
p2094
I01
sS'day'
p2095
I01
sS'purchase'
p2096
I01
sS'accordance'
p2097
I01
sS'cash'
p2098
I01
sS'contract'
p2099
I01
sS'time'
p2100
I01
sS'closing'
p2101
I01
sS'property'
p2102
I01
sg32
tp2103
a((dp2104
S'month'
p2105
I01
sS'agrees'
p2106
I01
sS'provided'
p2107
I01
sS'use'
p2108
I01
sS'pay'
p2109
I01
sS'written'
p2110
I01
sS'may'
p2111
I01
sS'state'
p2112
I01
sS'condition'
p2113
I01
sS'party'
p2114
I01
sS'lease'
p2115
I01
sS'possession'
p2116
I01
sS'notice'
p2117
I01
sS'provisions'
p2118
I01
sS'shall'
p2119
I01
sS'premises'
p2120
I01
sS'agreement'
p2121
I01
sS'address'
p2122
I01
sS'date'
p2123
I01
sS'law'
p2124
I01
sS'provision'
p2125
I01
sS'day'
p2126
I01
sS'tenant'
p2127
I01
sS'term'
p2128
I01
sS'name'
p2129
I01
sS'items'
p2130
I01
sS'taxes'
p2131
I01
sS'payments'
p2132
I01
sS'landlord'
p2133
I01
sS'following'
p2134
I01
sg32
tp2135
a((dp2136
S'right'
p2137
I01
sS'proprietary'
p2138
I01
sS'disclosing'
p2139
I01
sS'including'
p2140
I01
sS'parties'
p2141
I01
sS'technology'
p2142
I01
sS'information'
p2143
I01
sS'said'
p2144
I01
sS'patent'
p2145
I01
sS'section'
p2146
I01
sS'employer'
p2147
I01
sS'employee'
p2148
I01
sS'party'
p2149
I01
sS'receiving'
p2150
I01
sS'confidential'
p2151
I01
sS'shall'
p2152
I01
sS'may'
p2153
I01
sS'company'
p2154
I01
sS'hereby'
p2155
I01
sS'upon'
p2156
I01
sS'agreement'
p2157
I01
sS'services'
p2158
I01
sS'law'
p2159
I01
sS'acme'
p2160
I01
sS'rights'
p2161
I01
sS'work'
p2162
I01
sS'without'
p2163
I01
sS'time'
p2164
I01
sS'termination'
p2165
I01
sS'property'
p2166
I01
sg32
tp2167
a((dp2168
S'limited'
p2169
I01
sS'period'
p2170
I01
sS'sign'
p2171
I01
sS'including'
p2172
I01
sS'employment'
p2173
I01
sS'retirement'
p2174
I01
sS'acknowledge'
p2175
I01
sS'federal'
p2176
I01
sS'read'
p2177
I01
sS'state'
p2178
I01
sS'phased'
p2179
I01
sg1349
I01
sS'orange'
p2180
I01
sS'new'
p2181
I01
sS'terms'
p2182
I01
sS'may'
p2183
I01
sS'agreement'
p2184
I01
sS'policy'
p2185
I01
sS'understand'
p2186
I01
sS'faculty'
p2187
I01
sS'hall'
p2188
I01
sS'seton'
p2189
I01
sS'rights'
p2190
I01
sS'university'
p2191
I01
sS'tenured'
p2192
I01
sS'benefit'
p2193
I01
sS'release'
p2194
I01
sS'claims'
p2195
I01
sS'voluntarily'
p2196
I01
sS'south'
p2197
I01
sg32
tp2198
a((dp2199
S'estate'
p2200
I01
sS'obligations'
p2201
I01
sS'jurisdiction'
p2202
I01
sS'one'
p2203
I01
sS'including'
p2204
I01
sS'parties'
p2205
I01
sS'maine'
p2206
I01
sS'whereas'
p2207
I01
sS'separate'
p2208
I01
sS'state'
p2209
I01
sS'party'
p2210
I01
sS'deemed'
p2211
I01
sS'shall'
p2212
I01
sS'may'
p2213
I01
sS'agreement'
p2214
I01
sS'effect'
p2215
I01
sS'joint'
p2216
I01
sS'shared'
p2217
I01
sS'made'
p2218
I01
sS'hereafter'
p2219
I01
sS'rights'
p2220
I01
sS'whether'
p2221
I01
sS'remain'
p2222
I01
sS'without'
p2223
I01
sS'marriage'
p2224
I01
sS'either'
p2225
I01
sS'time'
p2226
I01
sS'hereto'
p2227
I01
sS'property'
p2228
I01
sS'laws'
p2229
I01
sg32
tp2230
a((dp2231
S'right'
p2232
I01
sS'cribsforkids'
p2233
I01
sS'guidelines'
p2234
I01
sS'licensee'
p2235
I01
sS'licensed'
p2236
I01
sS'parties'
p2237
I01
sS'provided'
p2238
I01
sS'use'
p2239
I01
sS'trademark'
p2240
I01
sS'mark'
p2241
I01
sg207
I01
sg78
I01
sg208
I01
sg787
I01
sg1355
I01
sS'territory'
p2242
I01
sS'cause'
p2243
I01
sS'notice'
p2244
I01
sS'shall'
p2245
I01
sS'upon'
p2246
I01
sS'agreement'
p2247
I01
sS'printed'
p2248
I01
sS'services'
p2249
I01
sS'promotional'
p2250
I01
sS'term'
p2251
I01
sS'license'
p2252
I01
sS'rights'
p2253
I01
sS'connection'
p2254
I01
sS'materials'
p2255
I01
sS'providing'
p2256
I01
sg32
tp2257
a((dp2258
S'alcoholic'
p2259
I01
sS'agreed'
p2260
I01
sS'owner'
p2261
I01
sS'yes'
p2262
I01
sS'insurance'
p2263
I01
sS'use'
p2264
I01
sS'facility'
p2265
I01
sS'damage'
p2266
I01
sS'per'
p2267
I01
sS'grange'
p2268
I01
sS'may'
p2269
I01
sS'pm'
p2270
I01
sS'shall'
p2271
I01
sS'premises'
p2272
I01
sS'beverages'
p2273
I01
sS'upon'
p2274
I01
sS'agreement'
p2275
I01
sS'representative'
p2276
I01
sS'date'
p2277
I01
sS'immediately'
p2278
I01
sS'hall'
p2279
I01
sS'name'
p2280
I01
sS'required'
p2281
I01
sS'prior'
p2282
I01
sS'amount'
p2283
I01
sS'deposit'
p2284
I01
sS'time'
p2285
I01
sS'security'
p2286
I01
sS'property'
p2287
I01
sS'user'
p2288
I01
sg32
tp2289
a((dp2290
S'thereof'
p2291
I01
sS'rent'
p2292
I01
sS'insurance'
p2293
I01
sS'provided'
p2294
I01
sS'use'
p2295
I01
sS'additional'
p2296
I01
sS'damage'
p2297
I01
sS'event'
p2298
I01
sS'may'
p2299
I01
sS'hereof'
p2300
I01
sS'conditions'
p2301
I01
sS'lease'
p2302
I01
sS'notice'
p2303
I01
sS'terms'
p2304
I01
sS'provisions'
p2305
I01
sS'shall'
p2306
I01
sS'premises'
p2307
I01
sS'upon'
p2308
I01
sS'covenants'
p2309
I01
sS'part'
p2310
I01
sS'date'
p2311
I01
sS'article'
p2312
I01
sS'tenant'
p2313
I01
sS'building'
p2314
I01
sS'hereunder'
p2315
I01
sS'term'
p2316
I01
sS'fixed'
p2317
I01
sS'landlord'
p2318
I01
sS'time'
p2319
I01
sS'expense'
p2320
I01
sg32
tp2321
a((dp2322
S'set'
p2323
I01
sS'fees'
p2324
I01
sS'including'
p2325
I01
sS'parties'
p2326
I01
sS'use'
p2327
I01
sS'may'
p2328
I01
sg207
I01
sg78
I01
sS'party'
p2329
I01
sS'forth'
p2330
I01
sS'product'
p2331
I01
sS'isotope11'
p2332
I01
sS'shall'
p2333
I01
sS'specifications'
p2334
I01
sS'agreement'
p2335
I01
sS'isotope'
p2336
I01
sS'services'
p2337
I01
sS'change'
p2338
I01
sS'11'
p2339
I01
sS'third'
p2340
I01
sS'indemnifying'
p2341
I01
sS'rights'
p2342
I01
sS'days'
p2343
I01
sS'client'
p2344
I01
sS'products'
p2345
I01
sS'action'
p2346
I01
sS'indemnified'
p2347
I01
sS'property'
p2348
I01
sS'order'
p2349
I01
sS'software'
p2350
I01
sg32
tp2351
a((dp2352
S'limited'
p2353
I01
sS'coverage'
p2354
I01
sS'one'
p2355
I01
sS'education'
p2356
I01
sS'insurance'
p2357
I01
sS'decision'
p2358
I01
sS'make'
p2359
I01
sS'father'
p2360
I01
sS'event'
p2361
I01
sg78
I01
sS'parents'
p2362
I01
sg1349
I01
sS'conflict'
p2363
I01
sS'life'
p2364
I01
sS'parent'
p2365
I01
sS'shall'
p2366
I01
sS'may'
p2367
I01
sS'mother'
p2368
I01
sS'agreement'
p2369
I01
sS'effect'
p2370
I01
sS'birth'
p2371
I01
sS'child'
p2372
I01
sS'day'
p2373
I01
sS'care'
p2374
I01
sS'age'
p2375
I01
sS'agree'
p2376
I01
sS'either'
p2377
I01
sS'time'
p2378
I01
sS'making'
p2379
I01
sS'medical'
p2380
I01
sg32
tp2381
a((dp2382
S'consulting'
p2383
I01
sS'entity'
p2384
I01
sS'parties'
p2385
I01
sS'information'
p2386
I01
sS'use'
p2387
I01
sS'confidential'
p2388
I01
sS'written'
p2389
I01
sg76
I01
sg207
I01
sg78
I01
sg424
I01
sg208
I01
sg1349
I01
sg787
I01
sS'party'
p2390
I01
sS'dispute'
p2391
I01
sS'business'
p2392
I01
sS'shall'
p2393
I01
sS'may'
p2394
I01
sS'company'
p2395
I01
sS'upon'
p2396
I01
sS'agreement'
p2397
I01
sS'services'
p2398
I01
sS'article'
p2399
I01
sS'month'
p2400
I01
sS'consultant'
p2401
I01
sS'work'
p2402
I01
sS'compensation'
p2403
I01
sS'without'
p2404
I01
sS'termination'
p2405
I01
sg32
tp2406
a((dp2407
S'control'
p2408
I01
sS'caused'
p2409
I01
sS'telephone'
p2410
I01
sS'manager'
p2411
I01
sS'agrees'
p2412
I01
sS'description'
p2413
I01
sS'pet'
p2414
I01
sS'responsible'
p2415
I01
sS'damage'
p2416
I01
sS'caretaker'
p2417
I01
sS'injury'
p2418
I01
sS'type'
p2419
I01
sS'landlord'
p2420
I01
sS'emergency'
p2421
I01
sS'shall'
p2422
I01
sS'agreement'
p2423
I01
sS'promptly'
p2424
I01
sS'address'
p2425
I01
sS'date'
p2426
I01
sS'tenant'
p2427
I01
sS'last'
p2428
I01
sS'name'
p2429
I01
sS'age'
p2430
I01
sS'keep'
p2431
I01
sS'provide'
p2432
I01
sS'costs'
p2433
I01
sS'deposit'
p2434
I01
sS'policies'
p2435
I01
sg1673
I01
sS'first'
p2436
I01
sg32
tp2437
a((dp2438
S'actions'
p2439
I01
sS'facilities'
p2440
I01
sS'manager'
p2441
I01
sS'individual'
p2442
I01
sS'result'
p2443
I01
sS'rink'
p2444
I01
sS'carry'
p2445
I01
sS'insurance'
p2446
I01
sS'regulations'
p2447
I01
sS'additional'
p2448
I01
sS'service'
p2449
I01
sS'title'
p2450
I01
sS'provide'
p2451
I01
sS'damage'
p2452
I01
sS'agrees'
p2453
I01
sS'provider'
p2454
I01
sS'business'
p2455
I01
sS'rules'
p2456
I01
sS'sole'
p2457
I01
sS'agreement'
p2458
I01
sS'liability'
p2459
I01
sS'000'
p2460
I01
sS'representative'
p2461
I01
sS'loss'
p2462
I01
sS'property'
p2463
I01
sS'name'
p2464
I01
sS'organization'
p2465
I01
sS'providing'
p2466
I01
sS'arising'
p2467
I01
sS'printed'
p2468
I01
sg32
tp2469
a((dp2470
S'obligations'
p2471
I01
sS'month'
p2472
I01
sS'including'
p2473
I01
sS'taxes'
p2474
I01
sS'information'
p2475
I01
sS'perform'
p2476
I01
sg207
I01
sS'per'
p2477
I01
sS'contractor'
p2478
I01
sS'state'
p2479
I01
sg208
I01
sS'party'
p2480
I01
sS'local'
p2481
I01
sS'terms'
p2482
I01
sS'business'
p2483
I01
sS'shall'
p2484
I01
sS'may'
p2485
I01
sS'company'
p2486
I01
sS'agreement'
p2487
I01
sS'paid'
p2488
I01
sS'others'
p2489
I01
sS'services'
p2490
I01
sS'day'
p2491
I01
sS'10'
p2492
I01
sS'whose'
p2493
I01
sS'accordance'
p2494
I01
sS'consultant'
p2495
I01
sS'contract'
p2496
I01
sS'personal'
p2497
I01
sS'time'
p2498
I01
sg32
tp2499
a((dp2500
S'right'
p2501
I01
sS'parties'
p2502
I01
sS'sales'
p2503
I01
sS'titles'
p2504
I01
sS'hereto'
p2505
I01
sS'agrees'
p2506
I01
sS'information'
p2507
I01
sS'service'
p2508
I01
sS'title'
p2509
I01
sS'six'
p2510
I01
sS'copies'
p2511
I01
sS'charge'
p2512
I01
sS'book'
p2513
I01
sg234
I01
sS'party'
p2514
I01
sS'returns'
p2515
I01
sS'shall'
p2516
I01
sS'may'
p2517
I01
sS'sole'
p2518
I01
sS'agreement'
p2519
I01
sS'spu'
p2520
I01
sS'breach'
p2521
I01
sS'publisher'
p2522
I01
sS'made'
p2523
I01
sg246
I01
sS'charges'
p2524
I01
sS'books'
p2525
I01
sS'advertising'
p2526
I01
sS'time'
p2527
I01
sS'sa'
p2528
I01
sg32
tp2529
a((dp2530
S'warranty'
p2531
I01
sS'repair'
p2532
I01
sS'limited'
p2533
I01
sS'caused'
p2534
I01
sS'licensed'
p2535
I01
sS'apply'
p2536
I01
sS'event'
p2537
I01
sS'service'
p2538
I01
sS'pay'
p2539
I01
sS'dealer'
p2540
I01
sS'0'
p2541
I01
sS'vehicle'
p2542
I01
sS'covered'
p2543
I01
sS'manufacturer'
p2544
I01
sS'may'
p2545
I01
sS'agreement'
p2546
I01
sS'failure'
p2547
I01
sS'part'
p2548
I01
sS'coverage'
p2549
I01
sS'new'
p2550
I01
sS'date'
p2551
I01
sS'must'
p2552
I01
sS'loss'
p2553
I01
sS'mi'
p2554
I01
sS'days'
p2555
I01
sS'us'
p2556
I01
sS'claim'
p2557
I01
sS'amount'
p2558
I01
sS'contact'
p2559
I01
sS'deductible'
p2560
I01
sg32
tp2561
a((dp2562
S'program'
p2563
I01
sS'facility'
p2564
I01
sS'course'
p2565
I01
sS'sponsor'
p2566
I01
sS'information'
p2567
I01
sS'group'
p2568
I01
sS'provide'
p2569
I01
sS'hospital'
p2570
I01
sg76
I01
sS'may'
p2571
I01
sg207
I01
sg78
I01
sg208
I01
sS'clinical'
p2572
I01
sS'must'
p2573
I01
sS'patient'
p2574
I01
sS'shall'
p2575
I01
sS'students'
p2576
I01
sS'agreement'
p2577
I01
sS'records'
p2578
I01
sS'student'
p2579
I01
sS'date'
p2580
I01
sS'services'
p2581
I01
sS'instructor'
p2582
I01
sS'care'
p2583
I01
sg26
I01
sg27
I01
sS'medical'
p2584
I01
sS'ems'
p2585
I01
sS'time'
p2586
I01
sg32
tp2587
a((dp2588
S'compensated'
p2589
I01
sS'student'
p2590
I01
sS'office'
p2591
I01
sS'number'
p2592
I01
sS'sign'
p2593
I01
sS'date'
p2594
I01
sS'file'
p2595
I01
sS'dear'
p2596
I01
sS'event'
p2597
I01
sS'provided'
p2598
I01
sS'speakers'
p2599
I01
sS'copy'
p2600
I01
sS'zip'
p2601
I01
sS'provide'
p2602
I01
sS'please'
p2603
I01
sS'copies'
p2604
I01
sS'note'
p2605
I01
sS'varies'
p2606
I01
sS'speaker'
p2607
I01
sS'include'
p2608
I01
sS'agreement'
p2609
I01
sS'letter'
p2610
I01
sS'organization'
p2611
I01
sS'services'
p2612
I01
sS'one'
p2613
I01
sS'name'
p2614
I01
sS'specific'
p2615
I01
sS'amount'
p2616
I01
sS'signature'
p2617
I01
sS'professional'
p2618
I01
sg32
tp2619
a((dp2620
S'less'
p2621
I01
sS'period'
p2622
I01
sS'one'
p2623
I01
sS'rate'
p2624
I01
sS'allowances'
p2625
I01
sS'wage'
p2626
I01
sS'law'
p2627
I01
sS'working'
p2628
I01
sS'pay'
p2629
I01
sS'travel'
p2630
I01
sS'per'
p2631
I01
sS'employer'
p2632
I01
sS'charge'
p2633
I01
sS'labour'
p2634
I01
sS'employee'
p2635
I01
sS'local'
p2636
I01
sS'11'
p2637
I01
sS'shall'
p2638
I01
sS'hours'
p2639
I01
sg78
I01
sS'regular'
p2640
I01
sS'thailand'
p2641
I01
sS'month'
p2642
I01
sS'day'
p2643
I01
sS'case'
p2644
I01
sS'13'
p2645
I01
sS'work'
p2646
I01
sS'contract'
p2647
I01
sS'expenses'
p2648
I01
sS'signature'
p2649
I01
sg32
tp2650
a((dp2651
S'right'
p2652
I01
sS'lessor'
p2653
I01
sS'rent'
p2654
I01
sS'hereto'
p2655
I01
sS'event'
p2656
I01
sS'use'
p2657
I01
sS'section'
p2658
I01
sS'state'
p2659
I01
sg76
I01
sS'may'
p2660
I01
sg207
I01
sg78
I01
sg424
I01
sg208
I01
sS'party'
p2661
I01
sS'maryland'
p2662
I01
sS'lease'
p2663
I01
sS'club'
p2664
I01
sS'notice'
p2665
I01
sS'shall'
p2666
I01
sS'premises'
p2667
I01
sS'upon'
p2668
I01
sS'13'
p2669
I01
sS'date'
p2670
I01
sS'term'
p2671
I01
sg27
I01
sS'lessee'
p2672
I01
sS'default'
p2673
I01
sS'hunt'
p2674
I01
sS'road'
p2675
I01
sg32
tp2676
a((dp2677
S'set'
p2678
I01
sS'force'
p2679
I01
sS'results'
p2680
I01
sS'services'
p2681
I01
sS'committee'
p2682
I01
sS'parties'
p2683
I01
sS'insurance'
p2684
I01
sS'engagement'
p2685
I01
sS'contractor'
p2686
I01
sS'written'
p2687
I01
sS'performance'
p2688
I01
sS'forth'
p2689
I01
sS'duties'
p2690
I01
sS'independent'
p2691
I01
sS'full'
p2692
I01
sS'terms'
p2693
I01
sS'provisions'
p2694
I01
sS'shall'
p2695
I01
sS'may'
p2696
I01
sS'hereby'
p2697
I01
sS'agreement'
p2698
I01
sS'report'
p2699
I01
sS'hereunder'
p2700
I01
sS'term'
p2701
I01
sS'benefits'
p2702
I01
sS'prior'
p2703
I01
sS'compensation'
p2704
I01
sS'without'
p2705
I01
sS'reasonable'
p2706
I01
sS'time'
p2707
I01
sg32
tp2708
a((dp2709
S'point'
p2710
I01
sS'agreed'
p2711
I01
sS'within'
p2712
I01
sS'iv'
p2713
I01
sS'parties'
p2714
I01
sS'laboratory'
p2715
I01
sS'calendar'
p2716
I01
sS'bailee'
p2717
I01
sS'bailed'
p2718
I01
sS'damage'
p2719
I01
sS'research'
p2720
I01
sg78
I01
sg1349
I01
sg234
I01
sS'party'
p2721
I01
sS'bailor'
p2722
I01
sS'return'
p2723
I01
sS'shall'
p2724
I01
sS'agreement'
p2725
I01
sS'delivery'
p2726
I01
sS'purpose'
p2727
I01
sS'date'
p2728
I01
sS'condition'
p2729
I01
sS'naval'
p2730
I01
sS'technical'
p2731
I01
sS'bailment'
p2732
I01
sS'days'
p2733
I01
sS'termination'
p2734
I01
sS'property'
p2735
I01
sS'referred'
p2736
I01
sg32
tp2737
a((dp2738
S'meetings'
p2739
I01
sS'raisa'
p2740
I01
sS'rate'
p2741
I01
sS'invoice'
p2742
I01
sS'parties'
p2743
I01
sS'lott'
p2744
I01
sS'agrees'
p2745
I01
sS'information'
p2746
I01
sS'dogood'
p2747
I01
sS'seattle'
p2748
I01
sS'grant'
p2749
I01
sS'shall'
p2750
I01
sS'submit'
p2751
I01
sS'contractor'
p2752
I01
sS'364'
p2753
I01
sS'include'
p2754
I01
sS'requested'
p2755
I01
sS'wa'
p2756
I01
sS'206'
p2757
I01
sS'agreement'
p2758
I01
sS'hours'
p2759
I01
sS'services'
p2760
I01
sS'proposal'
p2761
I01
sS'necessary'
p2762
I01
sS'work'
p2763
I01
sS'proposals'
p2764
I01
sS'contract'
p2765
I01
sS'client'
p2766
I01
sS'time'
p2767
I01
sS'organization'
p2768
I01
sg32
tp2769
a((dp2770
S'rae'
p2771
I01
sS'landowner'
p2772
I01
sS'fence'
p2773
I01
sS'xyz'
p2774
I01
sS'period'
p2775
I01
sS'years'
p2776
I01
sS'improvements'
p2777
I01
sS'leslie'
p2778
I01
sS'year'
p2779
I01
sS'grazing'
p2780
I01
sS'unit'
p2781
I01
sS'livestock'
p2782
I01
sS'20'
p2783
I01
sS'per'
p2784
I01
sS'acres'
p2785
I01
sg424
I01
sS'farming'
p2786
I01
sS'forth'
p2787
I01
sS'terms'
p2788
I01
sS'shall'
p2789
I01
sS'leased'
p2790
I01
sS'agreement'
p2791
I01
sS'purpose'
p2792
I01
sS'end'
p2793
I01
sS'leaser'
p2794
I01
sS'land'
p2795
I01
sS'lessee'
p2796
I01
sS'contract'
p2797
I01
sS'prior'
p2798
I01
sS'henry'
p2799
I01
sg32
tp2800
a((dp2801
S'set'
p2802
I01
sS'preexisting'
p2803
I01
sS'site'
p2804
I01
sS'one'
p2805
I01
sS'including'
p2806
I01
sS'parties'
p2807
I01
sS'agrees'
p2808
I01
sS'developer'
p2809
I01
sS'web'
p2810
I01
sS'party'
p2811
I01
sS'final'
p2812
I01
sS'confidential'
p2813
I01
sS'shall'
p2814
I01
sS'may'
p2815
I01
sS'company'
p2816
I01
sS'upon'
p2817
I01
sS'agreement'
p2818
I01
sS'deliverables'
p2819
I01
sS'date'
p2820
I01
sS'provided'
p2821
I01
sS'approval'
p2822
I01
sg26
I01
sg27
I01
sS'rights'
p2823
I01
sS'work'
p2824
I01
sS'days'
p2825
I01
sS'server'
p2826
I01
sS'materials'
p2827
I01
sS'time'
p2828
I01
sS'works'
p2829
I01
sg32
tp2830
a((dp2831
S'developed'
p2832
I01
sS'intellectual'
p2833
I01
sS'states'
p2834
I01
sS'invention'
p2835
I01
sS'cooperative'
p2836
I01
sS'parties'
p2837
I01
sS'technology'
p2838
I01
sS'use'
p2839
I01
sS'united'
p2840
I01
sS'title'
p2841
I01
sS'means'
p2842
I01
sS'tip'
p2843
I01
sS'research'
p2844
I01
sg76
I01
sg207
I01
sg78
I01
sS'party'
p2845
I01
sS'jva'
p2846
I01
sS'shall'
p2847
I01
sS'jv'
p2848
I01
sS'agreement'
p2849
I01
sS'award'
p2850
I01
sS'joint'
p2851
I01
sg1355
I01
sS'article'
p2852
I01
sS'work'
p2853
I01
sS'project'
p2854
I01
sS'venture'
p2855
I01
sS'property'
p2856
I01
sS'nist'
p2857
I01
sg32
tp2858
a((dp2859
S'county'
p2860
I01
sS'labor'
p2861
I01
sS'employment'
p2862
I01
sS'orders'
p2863
I01
sS'engineer'
p2864
I01
sS'24'
p2865
I01
sS'city'
p2866
I01
sS'federal'
p2867
I01
sS'section'
p2868
I01
sS'contractor'
p2869
I01
sg207
I01
sS'program'
p2870
I01
sS'interest'
p2871
I01
sS'provisions'
p2872
I01
sS'shall'
p2873
I01
sS'may'
p2874
I01
sS'regulations'
p2875
I01
sS'construction'
p2876
I01
sS'services'
p2877
I01
sS'provided'
p2878
I01
sg27
I01
sS'employees'
p2879
I01
sS'work'
p2880
I01
sS'contract'
p2881
I01
sS'project'
p2882
I01
sS'person'
p2883
I01
sS'part'
p2884
I01
sS'act'
p2885
I01
sS'action'
p2886
I01
sS'order'
p2887
I01
sg32
tp2888
a((dp2889
S'consulting'
p2890
I01
sS'gp'
p2891
I01
sS'notice'
p2892
I01
sS'licensee'
p2893
I01
sS'licensed'
p2894
I01
sS'including'
p2895
I01
sS'fees'
p2896
I01
sS'provided'
p2897
I01
sS'use'
p2898
I01
sS'means'
p2899
I01
sS'member'
p2900
I01
sg2541
I01
sg78
I01
sS'test'
p2901
I01
sS'breach'
p2902
I01
sS'product'
p2903
I01
sS'confidential'
p2904
I01
sS'shall'
p2905
I01
sS'may'
p2906
I01
sS'upon'
p2907
I01
sS'agreement'
p2908
I01
sS'thereof'
p2909
I01
sS'services'
p2910
I01
sS'rights'
p2911
I01
sS'applicable'
p2912
I01
sS'information'
p2913
I01
sS'portion'
p2914
I01
sS'materials'
p2915
I01
sS'works'
p2916
I01
sS'related'
p2917
I01
sg32
tp2918
a((dp2919
S'attorney'
p2920
I01
sS'tax'
p2921
I01
sS'month'
p2922
I01
sS'total'
p2923
I01
sS'city'
p2924
I01
sS'20'
p2925
I01
sS'power'
p2926
I01
sS'taxpayer'
p2927
I01
sS'please'
p2928
I01
sS'due'
p2929
I01
sS'day'
p2930
I01
sS'penalty'
p2931
I01
sg78
I01
sS'authorized'
p2932
I01
sS'interest'
p2933
I01
sS'chandler'
p2934
I01
sS'business'
p2935
I01
sS'shall'
p2936
I01
sS'may'
p2937
I01
sS'agreement'
p2938
I01
sS'plan'
p2939
I01
sS'date'
p2940
I01
sS'payment'
p2941
I01
sS'delinquent'
p2942
I01
sS'audit'
p2943
I01
sS'last'
p2944
I01
sS'final'
p2945
I01
sS'amount'
p2946
I01
sS'payments'
p2947
I01
sS'original'
p2948
I01
sg32
tp2949
a((dp2950
S'excepted'
p2951
I01
sS'repair'
p2952
I01
sS'period'
p2953
I01
sS'used'
p2954
I01
sS'rate'
p2955
I01
sS'full'
p2956
I01
sS'owner'
p2957
I01
sS'laurel'
p2958
I01
sS'inc'
p2959
I01
sS'rented'
p2960
I01
sS'pay'
p2961
I01
sS'stored'
p2962
I01
sS'equipment'
p2963
I01
sg78
I01
sS'renter'
p2964
I01
sS'rso'
p2965
I01
sS'terms'
p2966
I01
sS'returned'
p2967
I01
sS'shall'
p2968
I01
sS'upon'
p2969
I01
sS'agreement'
p2970
I01
sS'address'
p2971
I01
sS'rental'
p2972
I01
sS'term'
p2973
I01
sS'charges'
p2974
I01
sS'keep'
p2975
I01
sS'cost'
p2976
I01
sS'time'
p2977
I01
sS'expense'
p2978
I01
sS'replacement'
p2979
I01
sg32
tp2980
a((dp2981
S'right'
p2982
I01
sS'416'
p2983
I01
sS'ca'
p2984
I01
sS'offered'
p2985
I01
sS'shareholders'
p2986
I01
sS'ontario'
p2987
I01
sS'offer'
p2988
I01
sS'nao'
p2989
I01
sS'shares'
p2990
I01
sg208
I01
sS'party'
p2991
I01
sS'price'
p2992
I01
sS'exercise'
p2993
I01
sS'board'
p2994
I01
sS'terms'
p2995
I01
sS'business'
p2996
I01
sS'shall'
p2997
I01
sS'company'
p2998
I01
sS'agreement'
p2999
I01
sS'shareholder'
p3000
I01
sS'date'
p3001
I01
sS'article'
p3002
I01
sS'along'
p3003
I01
sS'10'
p3004
I01
sS'third'
p3005
I01
sS'directors'
p3006
I01
sS'purchase'
p3007
I01
sS'time'
p3008
I01
sS'round'
p3009
I01
sS'first'
p3010
I01
sg32
tp3011
a((dp3012
S'right'
p3013
I01
sS'co'
p3014
I01
sS'manuscript'
p3015
I01
sS'acknowledgement'
p3016
I01
sS'taylor'
p3017
I01
sS'including'
p3018
I01
sS'vor'
p3019
I01
sS'provided'
p3020
I01
sS'use'
p3021
I01
sS'accepted'
p3022
I01
sS'publication'
p3023
I01
sS'copyright'
p3024
I01
sS'author'
p3025
I01
sS'please'
p3026
I01
sS'employee'
p3027
I01
sS'include'
p3028
I01
sS'full'
p3029
I01
sS'form'
p3030
I01
sS'given'
p3031
I01
sS'journal'
p3032
I01
sS'material'
p3033
I01
sS'agreement'
p3034
I01
sS'authors'
p3035
I01
sS'article'
p3036
I01
sS'francis'
p3037
I01
sS'rights'
p3038
I01
sS'work'
p3039
I01
sS'us'
p3040
I01
sS'prior'
p3041
I01
sS'published'
p3042
I01
sg32
tp3043
a((dp3044
S'period'
p3045
I01
sS'home'
p3046
I01
sS'children'
p3047
I01
sS'provide'
p3048
I01
sS'travel'
p3049
I01
sS'father'
p3050
I01
sS'access'
p3051
I01
sS'parents'
p3052
I01
sS'ren'
p3053
I01
sS'transportation'
p3054
I01
sS'parent'
p3055
I01
sS'shall'
p3056
I01
sS'may'
p3057
I01
sS'time'
p3058
I01
sS'agreement'
p3059
I01
sS'parenting'
p3060
I01
sS'child'
p3061
I01
sS'day'
p3062
I01
sS'care'
p3063
I01
sS'school'
p3064
I01
sS'12'
p3065
I01
sS'name'
p3066
I01
sS'medical'
p3067
I01
sS'agree'
p3068
I01
sS'etc'
p3069
I01
sS'responsibility'
p3070
I01
sS'mother'
p3071
I01
sS'shared'
p3072
I01
sg1735
I01
sS'support'
p3073
I01
sg32
tp3074
a((dp3075
S'parties'
p3076
I01
sS'including'
p3077
I01
sS'fees'
p3078
I01
sS'owner'
p3079
I01
sS'agrees'
p3080
I01
sS'arbitration'
p3081
I01
sS'use'
p3082
I01
sS'end'
p3083
I01
sS'damage'
p3084
I01
sS'writing'
p3085
I01
sS'arbitrator'
p3086
I01
sS'renter'
p3087
I01
sS'vehicle'
p3088
I01
sS'party'
p3089
I01
sS'mileage'
p3090
I01
sS'shall'
p3091
I01
sS'may'
p3092
I01
sS'agreement'
p3093
I01
sg207
I01
sS'state'
p3094
I01
sS'address'
p3095
I01
sS'date'
p3096
I01
sS'rental'
p3097
I01
sS'loss'
p3098
I01
sS'car'
p3099
I01
sS'either'
p3100
I01
sS'following'
p3101
I01
sS'operate'
p3102
I01
sS'agree'
p3103
I01
sS'waiver'
p3104
I01
sg32
tp3105
a((dp3106
S'program'
p3107
I01
sS'financial'
p3108
I01
sS'period'
p3109
I01
sS'including'
p3110
I01
sS'sponsor'
p3111
I01
sS'agrees'
p3112
I01
sS'subrecipient'
p3113
I01
sS'use'
p3114
I01
sS'neh'
p3115
I01
sS'grant'
p3116
I01
sS'written'
p3117
I01
sg76
I01
sg207
I01
sg78
I01
sg424
I01
sg208
I01
sS'subject'
p3118
I01
sS'conditions'
p3119
I01
sS'shall'
p3120
I01
sS'may'
p3121
I01
sS'funds'
p3122
I01
sS'agreement'
p3123
I01
sS'approval'
p3124
I01
sS'required'
p3125
I01
sS'budget'
p3126
I01
sS'without'
p3127
I01
sS'project'
p3128
I01
sS'prior'
p3129
I01
sS'costs'
p3130
I01
sS'changes'
p3131
I01
sg32
tp3132
a((dp3133
S'excepted'
p3134
I01
sS'consent'
p3135
I01
sS'within'
p3136
I01
sS'thereof'
p3137
I01
sS'month'
p3138
I01
sS'parties'
p3139
I01
sS'sublessor'
p3140
I01
sS'yes'
p3141
I01
sS'agrees'
p3142
I01
sS'20'
p3143
I01
sS'legal'
p3144
I01
sg207
I01
sS'inventory'
p3145
I01
sS'party'
p3146
I01
sS'lease'
p3147
I01
sS'terms'
p3148
I01
sS'shall'
p3149
I01
sS'premises'
p3150
I01
sS'hereby'
p3151
I01
sS'agreement'
p3152
I01
sS'sublease'
p3153
I01
sS'years'
p3154
I01
sS'day'
p3155
I01
sS'term'
p3156
I01
sS'18'
p3157
I01
sS'attached'
p3158
I01
sS'days'
p3159
I01
sS'reasonable'
p3160
I01
sS'subtenant'
p3161
I01
sS'original'
p3162
I01
sg32
tp3163
a((dp3164
S'work'
p3165
I01
sS'consent'
p3166
I01
sS'lawyers'
p3167
I01
sS'completion'
p3168
I01
sS'arts'
p3169
I01
sS'copyright'
p3170
I01
sS'written'
p3171
I01
sS'writing'
p3172
I01
sS'state'
p3173
I01
sS'paragraph'
p3174
I01
sS'collaborator'
p3175
I01
sS'terms'
p3176
I01
sS'creating'
p3177
I01
sS'provisions'
p3178
I01
sS'shall'
p3179
I01
sS'upon'
p3180
I01
sS'agreement'
p3181
I01
sS'accountants'
p3182
I01
sS'date'
p3183
I01
sS'provision'
p3184
I01
sS'volunteer'
p3185
I01
sS'collaborators'
p3186
I01
sS'name'
p3187
I01
sS'louis'
p3188
I01
sS'mediation'
p3189
I01
sS'contract'
p3190
I01
sS'st'
p3191
I01
sS'credit'
p3192
I01
sS'without'
p3193
I01
sS'agree'
p3194
I01
sg32
tp3195
a((dp3196
S'required'
p3197
I01
sS'pursuant'
p3198
I01
sS'services'
p3199
I01
sS'parties'
p3200
I01
sS'writing'
p3201
I01
sS'provided'
p3202
I01
sS'provide'
p3203
I01
sS'please'
p3204
I01
sS'per'
p3205
I01
sS'contractor'
p3206
I01
sS'written'
p3207
I01
sS'agreements'
p3208
I01
sS'print'
p3209
I01
sS'party'
p3210
I01
sS'independent'
p3211
I01
sS'shall'
p3212
I01
sS'may'
p3213
I01
sS'reimburse'
p3214
I01
sS'company'
p3215
I01
sS'hereby'
p3216
I01
sS'term'
p3217
I01
sS'agreement'
p3218
I01
sS'date'
p3219
I01
sS'training'
p3220
I01
sS'name'
p3221
I01
sS'30'
p3222
I01
sS'days'
p3223
I01
sS'compensation'
p3224
I01
sS'either'
p3225
I01
sS'first'
p3226
I01
sg32
tp3227
a((dp3228
S'www'
p3229
I01
sS'obligations'
p3230
I01
sS'manage'
p3231
I01
sS'surry'
p3232
I01
sS'surrypartners'
p3233
I01
sS'xx'
p3234
I01
sS'design'
p3235
I01
sS'peter'
p3236
I01
sS'unit'
p3237
I01
sS'principal'
p3238
I01
sS'partners'
p3239
I01
sS'contractor'
p3240
I01
sg76
I01
sS'witness'
p3241
I01
sS'party'
p3242
I01
sS'australian'
p3243
I01
sS'lawyers'
p3244
I01
sS'shall'
p3245
I01
sS'may'
p3246
I01
sS'agreement'
p3247
I01
sS'services'
p3248
I01
sS'au'
p3249
I01
sS'2009'
p3250
I01
sS'name'
p3251
I01
sS'created'
p3252
I01
sS'information'
p3253
I01
sS'english'
p3254
I01
sg1673
I01
sS'property'
p3255
I01
sS'com'
p3256
I01
sg32
tp3257
a((dp3258
S'clause'
p3259
I01
sS'blank'
p3260
I01
sS'sales'
p3261
I01
sS'agent'
p3262
I01
sS'one'
p3263
I01
sS'parties'
p3264
I01
sS'clauses'
p3265
I01
sS'alternative'
p3266
I01
sS'principal'
p3267
I01
sS'legal'
p3268
I01
sS'commission'
p3269
I01
sg207
I01
sS'text'
p3270
I01
sS'international'
p3271
I01
sS'territory'
p3272
I01
sS'full'
p3273
I01
sS'shall'
p3274
I01
sS'contracts'
p3275
I01
sS'agreement'
p3276
I01
sS'number'
p3277
I01
sS'user'
p3278
I01
sS'address'
p3279
I01
sS'date'
p3280
I01
sS'sign'
p3281
I01
sS'must'
p3282
I01
sS'insert'
p3283
I01
sS'name'
p3284
I01
sS'country'
p3285
I01
sS'contract'
p3286
I01
sS'products'
p3287
I01
sg32
tp3288
a((dp3289
S'obligations'
p3290
I01
sS'reaches'
p3291
I01
sS'continued'
p3292
I01
sS'21'
p3293
I01
sS'provide'
p3294
I01
sS'transfer'
p3295
I01
sS'assistance'
p3296
I01
sS'application'
p3297
I01
sg207
I01
sg78
I01
sS'department'
p3298
I01
sS'appeal'
p3299
I01
sS'shall'
p3300
I01
sS'may'
p3301
I01
sS'guardian'
p3302
I01
sS'agreement'
p3303
I01
sS'additional'
p3304
I01
sS'child'
p3305
I01
sS'services'
p3306
I01
sS'procedures'
p3307
I01
sS'specify'
p3308
I01
sS'care'
p3309
I01
sS'include'
p3310
I01
sg246
I01
sS'18'
p3311
I01
sS'age'
p3312
I01
sS'payments'
p3313
I01
sS'following'
p3314
I01
sS'eligibility'
p3315
I01
sS'guardianship'
p3316
I01
sg32
tp3317
a((dp3318
S'resident'
p3319
I01
sS'consent'
p3320
I01
sS'terminate'
p3321
I01
sS'deemed'
p3322
I01
sS'month'
p3323
I01
sS'rent'
p3324
I01
sS'parking'
p3325
I01
sS'owner'
p3326
I01
sS'agrees'
p3327
I01
sS'said'
p3328
I01
sS'additional'
p3329
I01
sS'space'
p3330
I01
sS'pay'
p3331
I01
sS'premises'
p3332
I01
sS'written'
p3333
I01
sS'damages'
p3334
I01
sS'party'
p3335
I01
sS'notice'
p3336
I01
sS'terms'
p3337
I01
sS'shall'
p3338
I01
sS'may'
p3339
I01
sS'agreement'
p3340
I01
sS'part'
p3341
I01
sS'breach'
p3342
I01
sS'date'
p3343
I01
sS'condition'
p3344
I01
sS'items'
p3345
I01
sS'costs'
p3346
I01
sS'time'
p3347
I01
sS'property'
p3348
I01
sg32
tp3349
a((dp3350
S'confidentiality'
p3351
I01
sS'construed'
p3352
I01
sS'customers'
p3353
I01
sS'competition'
p3354
I01
sS'lawyer'
p3355
I01
sS'parties'
p3356
I01
sS'employment'
p3357
I01
sS'arbitration'
p3358
I01
sS'information'
p3359
I01
sS'solicitation'
p3360
I01
sS'circumstance'
p3361
I01
sS'legal'
p3362
I01
sS'rules'
p3363
I01
sS'vendors'
p3364
I01
sg78
I01
sS'employee'
p3365
I01
sS'party'
p3366
I01
sS'advice'
p3367
I01
sS'non'
p3368
I01
sS'business'
p3369
I01
sS'shall'
p3370
I01
sS'may'
p3371
I01
sS'company'
p3372
I01
sS'agreement'
p3373
I01
sS'law'
p3374
I01
sS'customer'
p3375
I01
sS'prospects'
p3376
I01
sS'specific'
p3377
I01
sS'agree'
p3378
I01
sS'initials'
p3379
I01
sg32
tp3380
a((dp3381
S'financial'
p3382
I01
sS'resident'
p3383
I01
sS'consolidated'
p3384
I01
sS'agent'
p3385
I01
sS'one'
p3386
I01
sS'coordinator'
p3387
I01
sS'rwanda'
p3388
I01
sS'donor'
p3389
I01
sS'administrative'
p3390
I01
sS'final'
p3391
I01
sS'activities'
p3392
I01
sS'shall'
p3393
I01
sS'rules'
p3394
I01
sS'funds'
p3395
I01
sS'agreement'
p3396
I01
sS'regulations'
p3397
I01
sS'fund'
p3398
I01
sS'date'
p3399
I01
sS'article'
p3400
I01
sS'undp'
p3401
I01
sS'procedures'
p3402
I01
sS'organizations'
p3403
I01
sS'account'
p3404
I01
sS'name'
p3405
I01
sS'accordance'
p3406
I01
sS'applicable'
p3407
I01
sS'participating'
p3408
I01
sS'un'
p3409
I01
sS'organization'
p3410
I01
sS'programme'
p3411
I01
sg32
tp3412
a((dp3413
S'entrepreneur'
p3414
I01
sS'profiles'
p3415
I01
sS'investment'
p3416
I01
sS'bams'
p3417
I01
sS'information'
p3418
I01
sS'fee'
p3419
I01
sS'rev'
p3420
I01
sS'shares'
p3421
I01
sg76
I01
sg207
I01
sg78
I01
sg424
I01
sS'details'
p3422
I01
sg1349
I01
sg208
I01
sS'200'
p3423
I01
sS'03'
p3424
I01
sS'000'
p3425
I01
sS'article'
p3426
I01
sS'100'
p3427
I01
sS'investor'
p3428
I01
sS'present'
p3429
I01
sS'case'
p3430
I01
sS'13'
p3431
I01
sS'success'
p3432
I01
sS'contract'
p3433
I01
sS'project'
p3434
I01
sS'2003'
p3435
I01
sS'amount'
p3436
I01
sS'following'
p3437
I01
sg32
tp3438
a((dp3439
S'site'
p3440
I01
sg371
I01
sS'date'
p3441
I01
sS'cost'
p3442
I01
sS'design'
p3443
I01
sS'estimated'
p3444
I01
sS'web'
p3445
I01
sS'00'
p3446
I01
sS'additional'
p3447
I01
sS'provide'
p3448
I01
sS'per'
p3449
I01
sS'content'
p3450
I01
sg207
I01
sg208
I01
sS'template'
p3451
I01
sS'website'
p3452
I01
sS'product'
p3453
I01
sS'may'
p3454
I01
sS'agreement'
p3455
I01
sS'freetime'
p3456
I01
sS'services'
p3457
I01
sS'pages'
p3458
I01
sS'10'
p3459
I01
sg246
I01
sS'work'
p3460
I01
sS'hosting'
p3461
I01
sg372
I01
sS'p'
p3462
I01
sS'client'
p3463
I01
sS'page'
p3464
I01
sg32
tp3465
a.