(lp0
((dp1
S'right'
p2
I01
sS'site'
p3
I01
sS'related'
p4
I01
sS'servers'
p5
I01
sS'including'
p6
I01
sS'ecommerce'
p7
I01
sS'web'
p8
I01
sS'use'
p9
I01
sS'service'
p10
I01
sS'wizard'
p11
I01
sS'sites'
p12
I01
sS'content'
p13
I01
sS'subsidiaries'
p14
I01
sS'shopping'
p15
I01
sS'users'
p16
I01
sS'business'
p17
I01
sS'information'
p18
I01
sS'may'
p19
I01
sS'agreement'
p20
I01
sS'cart'
p21
I01
sS'fortune3'
p22
I01
sS'user'
p23
I01
sS'services'
p24
I01
sS'data'
p25
I01
sS'e'
p26
I01
sS'rights'
p27
I01
sS'affiliates'
p28
I01
sS'time'
p29
I01
sS'genie'
p30
I01
sS'software'
p31
I01
sVpos
p32
tp33
a((dp34
S'one'
p35
I01
sS'hardware'
p36
I01
sS'grants'
p37
I01
sS'licenses'
p38
I01
sS'event'
p39
I01
sS'use'
p40
I01
sS'copy'
p41
I01
sS'exclusion'
p42
I01
sS'title'
p43
I01
sS'except'
p44
I01
sS'damages'
p45
I01
sS'consequential'
p46
I01
sS'product'
p47
I01
sS'shall'
p48
I01
sS'may'
p49
I01
sS'agreement'
p50
I01
sS'liability'
p51
I01
sS'pixelmetrics'
p52
I01
sS'ownership'
p53
I01
sS'relating'
p54
I01
sS'law'
p55
I01
sS'must'
p56
I01
sS'license'
p57
I01
sS'rights'
p58
I01
sS'whether'
p59
I01
sS'acknowledge'
p60
I01
sS'incidental'
p61
I01
sS'arising'
p62
I01
sS'agree'
p63
I01
sS'software'
p64
I01
sg32
tp65
a((dp66
S'POSSESSION'
p67
I01
sS'DO'
p68
I01
sS'USE'
p69
I01
sS'RETURN'
p70
I01
sS'LICENSE'
p71
I01
sS'THAT'
p72
I01
sS'READ'
p73
I01
sS'terminate'
p74
I01
sS'all'
p75
I01
sS'thereof'
p76
I01
sS'one'
p77
I01
sS'UNDERSTAND'
p78
I01
sS'at'
p79
I01
sS'HAVE'
p80
I01
sS';'
p81
I01
sS'YOUR'
p82
I01
sS'END-USER'
p83
I01
sS'use'
p84
I01
sS'TERMS'
p85
I01
sS'for'
p86
I01
sS'to'
p87
I01
sS')'
p88
I01
sS'('
p89
I01
sS','
p90
I01
sS'.'
p91
I01
sS'The'
p92
I01
sS'TO'
p93
I01
sS'only'
p94
I01
sS'copies'
p95
I01
sS'TERM'
p96
I01
sS'you'
p97
I01
sS'WARRANTIES'
p98
I01
sS'SOFTWARE'
p99
I01
sS'a'
p100
I01
sS'GT'
p101
I01
sS'FOR'
p102
I01
sS'GRANT'
p103
I01
sS'any'
p104
I01
sS'VINC'
p105
I01
sS'This'
p106
I01
sS'workstation'
p107
I01
sS'damages'
p108
I01
sS'liability'
p109
I01
sS'DAMAGES'
p110
I01
sS'WAY'
p111
I01
sS'IN'
p112
I01
sS'YOU'
p113
I01
sS'with'
p114
I01
sS'AGREE'
p115
I01
sS'Software'
p116
I01
sS'AND'
p117
I01
sS'RESTRICTIONS'
p118
I01
sS'and'
p119
I01
sS'THIS'
p120
I01
sS'OF'
p121
I01
sS'AGREEMENT'
p122
I01
sS'together'
p123
I01
sS'or'
p124
I01
sS'this'
p125
I01
sS'COPYRIGHT/OWNERSHIP'
p126
I01
sS'warranties'
p127
I01
sS'of'
p128
I01
sS'NOT'
p129
I01
sS'USING'
p130
I01
sS'the'
p131
I01
sS'DISCLAIMER'
p132
I01
sS'ANY'
p133
I01
sS'software'
p134
I01
sg32
tp135
a((dp136
S'licensee'
p137
I01
sS'computer'
p138
I01
sS'agrees'
p139
I01
sS'quikcat'
p140
I01
sS'use'
p141
I01
sS'end'
p142
I01
sS'service'
p143
I01
sS'credit'
p144
I01
sS'granted'
p145
I01
sS'next'
p146
I01
sS'read'
p147
I01
sS'written'
p148
I01
sS'conditions'
p149
I01
sS'terms'
p150
I01
sS'shall'
p151
I01
sS'may'
p152
I01
sS'agreement'
p153
I01
sS'user'
p154
I01
sS'date'
p155
I01
sS'using'
p156
I01
sS'must'
p157
I01
sS'hereunder'
p158
I01
sS'account'
p159
I01
sS'billing'
p160
I01
sS'license'
p161
I01
sS'rights'
p162
I01
sS'documentation'
p163
I01
sS'information'
p164
I01
sS'provided'
p165
I01
sS'software'
p166
I01
sg32
tp167
a((dp168
S'jurisdiction'
p169
I01
sS'except'
p170
I01
sS'solutions'
p171
I01
sS'event'
p172
I01
sS'use'
p173
I01
sS'united'
p174
I01
sS'exclusion'
p175
I01
sS'copyright'
p176
I01
sS'title'
p177
I01
sS'pay'
p178
I01
sS'system'
p179
I01
sS'damages'
p180
I01
sS'consequential'
p181
I01
sS'pal'
p182
I01
sS'warranties'
p183
I01
sS'kingdom'
p184
I01
sS'terms'
p185
I01
sS'means'
p186
I01
sS'may'
p187
I01
sS'agreement'
p188
I01
sS'liability'
p189
I01
sS'ownership'
p190
I01
sS'entire'
p191
I01
sS'purchase'
p192
I01
sS'license'
p193
I01
sS'rights'
p194
I01
sS'incidental'
p195
I01
sS'implied'
p196
I01
sS'agree'
p197
I01
sS'software'
p198
I01
sg32
tp199
a((dp200
S'LICENSE'
p201
I01
sS'WITH'
p202
I01
sS'provision'
p203
I01
sS'access'
p204
I01
sS'21'
p205
I01
sS'discounts'
p206
I01
sg89
I01
sg90
I01
sS'GENERAL'
p207
I01
sS'Labs'
p208
I01
sS'to'
p209
I01
sS'EVALUATION'
p210
I01
sS'DISCLAIMERS'
p211
I01
sS'2003-2004'
p212
I01
sS'VERSION'
p213
I01
sS'***'
p214
I01
sS'not'
p215
I01
sS'SCOPE'
p216
I01
sS'THE'
p217
I01
sS'WHERE'
p218
I01
sS'day'
p219
I01
sS'THIS'
p220
I01
sS'OF'
p221
I01
sS'OR'
p222
I01
sS'BRILLIANTPHOTO'
p223
I01
sS'titled'
p224
I01
sS'see'
p225
I01
sS'Version'
p226
I01
sS'SUCH'
p227
I01
sS'LIABILITY'
p228
I01
sS'This'
p229
I01
sS'version'
p230
I01
sg81
I01
sS'C'
p231
I01
sS'Rights'
p232
I01
sS'Brilliant'
p233
I01
sS'agreement'
p234
I01
sS'LABS'
p235
I01
sS'BLI'
p236
I01
sS'SYSTEMS'
p237
I01
sS'by'
p238
I01
sS'standard-licensed'
p239
I01
sS'AND'
p240
I01
sS'on'
p241
I01
sS'installation'
p242
I01
sS'license'
p243
I01
sS'of'
p244
I01
sS'AGREEMENT'
p245
I01
sS'times'
p246
I01
sS'or'
p247
I01
sS'INC'
p248
I01
sS'WARRANTY'
p249
I01
sS'Copyright'
p250
I01
sS'period'
p251
I01
sS'Standard'
p252
I01
sS'Evaluation'
p253
I01
sS'your'
p254
I01
sS'LIMITATIONS'
p255
I01
sS'use'
p256
I01
sS'RELATIONSHIP'
p257
I01
sS'service'
p258
I01
sS'acceptance'
p259
I01
sg91
I01
sS'their'
p260
I01
sS'BrilliantPhoto'
p261
I01
sS'``'
p262
I01
sS'that'
p263
I01
sS'BRILLIANT'
p264
I01
sS'STANDARD'
p265
I01
sS'R'
p266
I01
sS'copy'
p267
I01
sS'applies'
p268
I01
sS'distribution'
p269
I01
sS'Inc'
p270
I01
sS'and'
p271
I01
sS'USE'
p272
I01
sS'1.2'
p273
I01
sS'is'
p274
I01
sS"''"
p275
I01
sS'indicates'
p276
I01
sS'as'
p277
I01
sS'have'
p278
I01
sS'in'
p279
I01
sS'RELATING'
p280
I01
sS'YOUR'
p281
I01
sg88
I01
sS'LOSSES'
p282
I01
sS'TO'
p283
I01
sS'you'
p284
I01
sS'License'
p285
I01
sS'concurrent'
p286
I01
sS'IN'
p287
I01
sS'All'
p288
I01
sS'Reserved'
p289
I01
sS'the'
p290
I01
sg32
tp291
a((dp292
S'decompile'
p293
I01
sS'distribute'
p294
I01
sS'licensed'
p295
I01
sS'result'
p296
I01
sS'event'
p297
I01
sS'picobackup'
p298
I01
sS'use'
p299
I01
sS'service'
p300
I01
sS'copies'
p301
I01
sS'access'
p302
I01
sS'program'
p303
I01
sS'engineer'
p304
I01
sS'evaluation'
p305
I01
sS'lease'
p306
I01
sS'terms'
p307
I01
sS'business'
p308
I01
sS'disassemble'
p309
I01
sS'may'
p310
I01
sS'modify'
p311
I01
sS'agreement'
p312
I01
sS'others'
p313
I01
sS'relating'
p314
I01
sS'copy'
p315
I01
sS'reverse'
p316
I01
sS'acubix'
p317
I01
sS'license'
p318
I01
sS'unauthorized'
p319
I01
sS'entirely'
p320
I01
sS'agree'
p321
I01
sS'software'
p322
I01
sg32
tp323
a((dp324
S'code'
p325
I01
sS'features'
p326
I01
sS'computing'
p327
I01
sS'pro'
p328
I01
sS'licensed'
p329
I01
sS'states'
p330
I01
sS'export'
p331
I01
sS'registration'
p332
I01
sS'subject'
p333
I01
sS'information'
p334
I01
sS'use'
p335
I01
sS'united'
p336
I01
sS'copies'
p337
I01
sS'access'
p338
I01
sS'files'
p339
I01
sS'terms'
p340
I01
sS'shall'
p341
I01
sS'may'
p342
I01
sS'affiliates'
p343
I01
sS'user'
p344
I01
sS'winzip'
p345
I01
sS'copy'
p346
I01
sS'data'
p347
I01
sS'c'
p348
I01
sS'licensors'
p349
I01
sS'license'
p350
I01
sS'without'
p351
I01
sS'install'
p352
I01
sS'including'
p353
I01
sS'software'
p354
I01
sg32
tp355
a((dp356
S'warranty'
p357
I01
sS'eula'
p358
I01
sS'period'
p359
I01
sS'one'
p360
I01
sS'computer'
p361
I01
sS'including'
p362
I01
sS'names'
p363
I01
sS'another'
p364
I01
sS'safestmail'
p365
I01
sS'previous'
p366
I01
sS'use'
p367
I01
sS'upgrade'
p368
I01
sS'transfer'
p369
I01
sS'version'
p370
I01
sS'test'
p371
I01
sS'used'
p372
I01
sS'terms'
p373
I01
sS'shall'
p374
I01
sS'may'
p375
I01
sS'agreement'
p376
I01
sS'purpose'
p377
I01
sS'trademarks'
p378
I01
sS'copy'
p379
I01
sS'b'
p380
I01
sS'license'
p381
I01
sS'rights'
p382
I01
sS'install'
p383
I01
sS'otherwise'
p384
I01
sS'agree'
p385
I01
sS'software'
p386
I01
sg32
tp387
a((dp388
S'warranty'
p389
I01
sS'limited'
p390
I01
sS'eula'
p391
I01
sS'one'
p392
I01
sS'services'
p393
I01
sS'including'
p394
I01
sS'apply'
p395
I01
sS'provided'
p396
I01
sS'use'
p397
I01
sS'law'
p398
I01
sS'media'
p399
I01
sS'support'
p400
I01
sS'except'
p401
I01
sS'damages'
p402
I01
sS'mailshell'
p403
I01
sS'product'
p404
I01
sS'elements'
p405
I01
sS'terms'
p406
I01
sS'may'
p407
I01
sS'remedy'
p408
I01
sS'user'
p409
I01
sS'device'
p410
I01
sS'copy'
p411
I01
sS'subscription'
p412
I01
sS'license'
p413
I01
sS'rights'
p414
I01
sS'applicable'
p415
I01
sS'materials'
p416
I01
sS'install'
p417
I01
sS'software'
p418
I01
sg32
tp419
a((dp420
S'terminate'
p421
I01
sS'computer'
p422
I01
sS'fees'
p423
I01
sS'agrees'
p424
I01
sS'information'
p425
I01
sS'use'
p426
I01
sS'01'
p427
I01
sS'service'
p428
I01
sS'access'
p429
I01
sS'internet'
p430
I01
sS'warranties'
p431
I01
sS'notice'
p432
I01
sS'terms'
p433
I01
sS'communique'
p434
I01
sS'may'
p435
I01
sS'registered'
p436
I01
sS'limitation'
p437
I01
sS'liability'
p438
I01
sS'fee'
p439
I01
sS'card'
p440
I01
sS'subscription'
p441
I01
sS'customer'
p442
I01
sS'loss'
p443
I01
sg348
I01
sg380
I01
sS'rights'
p444
I01
sS'credit'
p445
I01
sS'without'
p446
I01
sS'arising'
p447
I01
sS'software'
p448
I01
sg32
tp449
a((dp450
S'limited'
p451
I01
sS'videochat'
p452
I01
sS'communication'
p453
I01
sS'vr'
p454
I01
sS'including'
p455
I01
sS'id'
p456
I01
sS'information'
p457
I01
sS'use'
p458
I01
sS'service'
p459
I01
sS'sites'
p460
I01
sS'content'
p461
I01
sS'pc'
p462
I01
sS'party'
p463
I01
sS'3d'
p464
I01
sS'users'
p465
I01
sS'shall'
p466
I01
sS'may'
p467
I01
sS'marketing'
p468
I01
sS'agreement'
p469
I01
sS'user'
p470
I01
sS'services'
p471
I01
sS'law'
p472
I01
sS'third'
p473
I01
sS'rights'
p474
I01
sS'without'
p475
I01
sS'affiliate'
p476
I01
sS'buzz'
p477
I01
sS'software'
p478
I01
sS'agree'
p479
I01
sS'otherwise'
p480
I01
sg32
tp481
a((dp482
S'licensee'
p483
I01
sS'including'
p484
I01
sS'information'
p485
I01
sS'use'
p486
I01
sS'fee'
p487
I01
sS'privacy'
p488
I01
sS'written'
p489
I01
sS'1'
p490
I01
sS'3'
p491
I01
sS'2'
p492
I01
sS'5'
p493
I01
sS'4'
p494
I01
sS'6'
p495
I01
sS'party'
p496
I01
sS'conditions'
p497
I01
sS'warranties'
p498
I01
sS'damages'
p499
I01
sS'terms'
p500
I01
sS'shall'
p501
I01
sS'may'
p502
I01
sS'time'
p503
I01
sS'upon'
p504
I01
sS'agreement'
p505
I01
sS'8'
p506
I01
sS'license'
p507
I01
sS'rights'
p508
I01
sS'documentation'
p509
I01
sS'authorized'
p510
I01
sS'copernic'
p511
I01
sS'software'
p512
I01
sg32
tp513
a((dp514
S'warranty'
p515
I01
sS'civil'
p516
I01
sS'distribute'
p517
I01
sS'bound'
p518
I01
sS'cd'
p519
I01
sS'packaging'
p520
I01
sS'treaties'
p521
I01
sS'disc'
p522
I01
sS'including'
p523
I01
sS'result'
p524
I01
sS'copyrighted'
p525
I01
sS'use'
p526
I01
sS'copyright'
p527
I01
sS'damages'
p528
I01
sS'international'
p529
I01
sS'evaluation'
p530
I01
sS'warranties'
p531
I01
sS'terms'
p532
I01
sS'may'
p533
I01
sS'sofrayt'
p534
I01
sS'agreement'
p535
I01
sS'user'
p536
I01
sS'must'
p537
I01
sS'lost'
p538
I01
sS'license'
p539
I01
sS'installing'
p540
I01
sS'without'
p541
I01
sS'distribution'
p542
I01
sS'agree'
p543
I01
sS'software'
p544
I01
sg32
tp545
a((dp546
S'features'
p547
I01
sS'including'
p548
I01
sS'parties'
p549
I01
sS'information'
p550
I01
sS'use'
p551
I01
sS'service'
p552
I01
sS'privacy'
p553
I01
sS'access'
p554
I01
sS'web'
p555
I01
sS'various'
p556
I01
sS'notices'
p557
I01
sS'icq'
p558
I01
sS'content'
p559
I01
sS'available'
p560
I01
sS'terms'
p561
I01
sS'users'
p562
I01
sS'shall'
p563
I01
sS'may'
p564
I01
sS'material'
p565
I01
sS'agreement'
p566
I01
sS'part'
p567
I01
sS'user'
p568
I01
sS'services'
p569
I01
sS'provided'
p570
I01
sS'third'
p571
I01
sS'rights'
p572
I01
sS'without'
p573
I01
sS'otherwise'
p574
I01
sS'agree'
p575
I01
sS'software'
p576
I01
sg32
tp577
a((dp578
S'warranty'
p579
I01
sS'limited'
p580
I01
sS'code'
p581
I01
sS'notice'
p582
I01
sS'videovista'
p583
I01
sS'including'
p584
I01
sS'library'
p585
I01
sS'provided'
p586
I01
sS'use'
p587
I01
sS'copyright'
p588
I01
sS'purpose'
p589
I01
sS'means'
p590
I01
sg490
I01
sg491
I01
sS'version'
p591
I01
sS'must'
p592
I01
sS'conditions'
p593
I01
sS'product'
p594
I01
sS'used'
p595
I01
sS'terms'
p596
I01
sS'shall'
p597
I01
sS'may'
p598
I01
sS'agreement'
p599
I01
sS'user'
p600
I01
sS'licence'
p601
I01
sS'copy'
p602
I01
sS'manufacturer'
p603
I01
sS'without'
p604
I01
sS'following'
p605
I01
sS'software'
p606
I01
sg32
tp607
a((dp608
S'licensee'
p609
I01
sS'one'
p610
I01
sS'treaties'
p611
I01
sS'registration'
p612
I01
sS'licenses'
p613
I01
sS'home'
p614
I01
sS'inc'
p615
I01
sS'provided'
p616
I01
sS'use'
p617
I01
sS'errors'
p618
I01
sS'end'
p619
I01
sS'copyright'
p620
I01
sS'rongshu'
p621
I01
sS'program'
p622
I01
sS'product'
p623
I01
sS'terms'
p624
I01
sS'business'
p625
I01
sS'shall'
p626
I01
sS'may'
p627
I01
sS'agreement'
p628
I01
sS'free'
p629
I01
sS'however'
p630
I01
sS'liability'
p631
I01
sS'user'
p632
I01
sS'not'
p633
I01
sS'loss'
p634
I01
sS'installation'
p635
I01
sS'license'
p636
I01
sS'transfer'
p637
I01
sS'software'
p638
I01
sg32
tp639
a((dp640
S'www'
p641
I01
sS'en'
p642
I01
sS'factbook'
p643
I01
sS'displayed'
p644
I01
sS'innovations'
p645
I01
sS'weather'
p646
I01
sS'terms'
p647
I01
sS'information'
p648
I01
sS'use'
p649
I01
sS'copyright'
p650
I01
sS'tv'
p651
I01
sS'wikipedia'
p652
I01
sS'ups'
p653
I01
sS'content'
p654
I01
sS'html'
p655
I01
sS'provider'
p656
I01
sS'http'
p657
I01
sS'web'
p658
I01
sS'visionary'
p659
I01
sS'agreement'
p660
I01
sS'terra'
p661
I01
sS'amazon'
p662
I01
sS'altavista'
p663
I01
sS'user'
p664
I01
sS'cia'
p665
I01
sS'ebay'
p666
I01
sS'without'
p667
I01
sS'com'
p668
I01
sS'agree'
p669
I01
sS'software'
p670
I01
sg32
tp671
a((dp672
S'limited'
p673
I01
sS'eula'
p674
I01
sS'investintech'
p675
I01
sS'one'
p676
I01
sS'single'
p677
I01
sS'computer'
p678
I01
sS'including'
p679
I01
sS'use'
p680
I01
sS'48'
p681
I01
sS'support'
p682
I01
sS'without'
p683
I01
sS'product'
p684
I01
sS'used'
p685
I01
sS'terms'
p686
I01
sS'shall'
p687
I01
sS'may'
p688
I01
sS'agreement'
p689
I01
sS'user'
p690
I01
sS'copy'
p691
I01
sS'permitted'
p692
I01
sg348
I01
sS'copyright'
p693
I01
sS'license'
p694
I01
sS'f'
p695
I01
sS'rights'
p696
I01
sS'r'
p697
I01
sS'install'
p698
I01
sS'software'
p699
I01
sS'agree'
p700
I01
sS'otherwise'
p701
I01
sg32
tp702
a((dp703
S'eula'
p704
I01
sS'right'
p705
I01
sS'including'
p706
I01
sS'use'
p707
I01
sS'service'
p708
I01
sS'privacy'
p709
I01
sS'content'
p710
I01
sS'affiliate'
p711
I01
sg491
I01
sS'online'
p712
I01
sS'party'
p713
I01
sS'product'
p714
I01
sS'terms'
p715
I01
sS'may'
p716
I01
sS'activation'
p717
I01
sS'agreement'
p718
I01
sS'otherwise'
p719
I01
sS'user'
p720
I01
sS'key'
p721
I01
sS'services'
p722
I01
sS'limitation'
p723
I01
sS'third'
p724
I01
sS'rights'
p725
I01
sS'applicable'
p726
I01
sS'without'
p727
I01
sS'products'
p728
I01
sS'photozig'
p729
I01
sS'laws'
p730
I01
sS'agree'
p731
I01
sS'software'
p732
I01
sg32
tp733
a((dp734
S'warranty'
p735
I01
sS'period'
p736
I01
sS'computer'
p737
I01
sS'export'
p738
I01
sS'licenses'
p739
I01
sS'provided'
p740
I01
sS'use'
p741
I01
sS'copy'
p742
I01
sS'additional'
p743
I01
sg491
I01
sS'version'
p744
I01
sS'authorized'
p745
I01
sS'conditions'
p746
I01
sS'non'
p747
I01
sS'terms'
p748
I01
sS'shall'
p749
I01
sS'may'
p750
I01
sS'registered'
p751
I01
sS'agreement'
p752
I01
sS'user'
p753
I01
sS'extent'
p754
I01
sg492
I01
sS'law'
p755
I01
sS'purchase'
p756
I01
sS'license'
p757
I01
sS'rights'
p758
I01
sS'evaluation'
p759
I01
sS'u'
p760
I01
sS'thornsoft'
p761
I01
sS'software'
p762
I01
sg32
tp763
a((dp764
S'features'
p765
I01
sS'pro'
p766
I01
sS'period'
p767
I01
sS'subject'
p768
I01
sS'provided'
p769
I01
sS'use'
p770
I01
sS'fee'
p771
I01
sS'end'
p772
I01
sS'additional'
p773
I01
sg491
I01
sS'party'
p774
I01
sS'adriansoft'
p775
I01
sS'terms'
p776
I01
sS'shall'
p777
I01
sS'may'
p778
I01
sS'ebook'
p779
I01
sS'agreement'
p780
I01
sS'labs'
p781
I01
sS'services'
p782
I01
sS'subscription'
p783
I01
sS'11'
p784
I01
sS'license'
p785
I01
sS'rights'
p786
I01
sS'technical'
p787
I01
sS'builder'
p788
I01
sS'applicable'
p789
I01
sg760
I01
sS'time'
p790
I01
sS'agree'
p791
I01
sS'software'
p792
I01
sg32
tp793
a((dp794
S'refund'
p795
I01
sS'limited'
p796
I01
sS'all'
p797
I01
sS'agrees'
p798
I01
sg89
I01
sg90
I01
sS'to'
p799
I01
sS'only'
p800
I01
sS'program'
p801
I01
sS'Continued'
p802
I01
sS'THE'
p803
I01
sS'possess'
p804
I01
sS'LIMITED'
p805
I01
sS'MAY'
p806
I01
sS'OF'
p807
I01
sS'rights'
p808
I01
sS'de-compile'
p809
I01
sS'OR'
p810
I01
sS'GOVERNMENT'
p811
I01
sS'beyond'
p812
I01
sS'provided'
p813
I01
sS'for'
p814
I01
sS'evaluation'
p815
I01
sS'be'
p816
I01
sS'terms'
p817
I01
sS'FOR'
p818
I01
sS'This'
p819
I01
sS'U.S.'
p820
I01
sS'modify'
p821
I01
sS'AND'
p822
I01
sS'reverse'
p823
I01
sS'license'
p824
I01
sS'of'
p825
I01
sS'allows'
p826
I01
sS'NOT'
p827
I01
sS'or'
p828
I01
sS'DISCLAIMER'
p829
I01
sS'WARRANTY'
p830
I01
sS'purchaser'
p831
I01
sS'Use'
p832
I01
sS'period'
p833
I01
sS'grants'
p834
I01
sS'engineer'
p835
I01
sS'use'
p836
I01
sS'transfer'
p837
I01
sg91
I01
sS'User'
p838
I01
sS'until'
p839
I01
sS'that'
p840
I01
sS'IMPLIED'
p841
I01
sS'Software'
p842
I01
sS'RIGHTS'
p843
I01
sS'this'
p844
I01
sS'reproduce'
p845
I01
sS'below'
p846
I01
sS'expiration'
p847
I01
sS'solely'
p848
I01
sS'and'
p849
I01
sS'is'
p850
I01
sS'purposes'
p851
I01
sS'in'
p852
I01
sS'any'
p853
I01
sg88
I01
sS'RESTRICTED'
p854
I01
sS'TO'
p855
I01
sS'you'
p856
I01
sS'License'
p857
I01
sS'disassemble'
p858
I01
sS'IS'
p859
I01
sS'JURISDICTION'
p860
I01
sS'Specific'
p861
I01
sS'AS'
p862
I01
sS'regular'
p863
I01
sS'date'
p864
I01
sS'such'
p865
I01
sS'YOU'
p866
I01
sS'Solutionsoft'
p867
I01
sg100
I01
sS'purchase'
p868
I01
sS'documentation'
p869
I01
sS'Licensee'
p870
I01
sS'Licensed'
p871
I01
sS'Single'
p872
I01
sS'the'
p873
I01
sS'software'
p874
I01
sS'requires'
p875
I01
sS'SOLUTIONSOFT'
p876
I01
sg32
tp877
a((dp878
S'warranty'
p879
I01
sS'limited'
p880
I01
sS'eula'
p881
I01
sS'single'
p882
I01
sS'computer'
p883
I01
sS'export'
p884
I01
sS'font'
p885
I01
sS'provided'
p886
I01
sS'use'
p887
I01
sS'copy'
p888
I01
sS'transfer'
p889
I01
sS'support'
p890
I01
sS'email'
p891
I01
sS'product'
p892
I01
sS'terms'
p893
I01
sS'shall'
p894
I01
sS'may'
p895
I01
sS'anconia'
p896
I01
sS'upgrade'
p897
I01
sS'user'
p898
I01
sS'services'
p899
I01
sS'law'
p900
I01
sS'must'
p901
I01
sS'license'
p902
I01
sS'rights'
p903
I01
sS'documentation'
p904
I01
sS'applicable'
p905
I01
sg760
I01
sS'including'
p906
I01
sS'software'
p907
I01
sg32
tp908
a((dp909
S'and'
p910
I01
sS'Fee'
p911
I01
sS'Ave.'
p912
I01
sS'94066'
p913
I01
sS'reference'
p914
I01
sS'Privacy'
p915
I01
sS'Personal'
p916
I01
sS'into'
p917
I01
sS'Acceptance'
p918
I01
sS'Administration'
p919
I01
sg90
I01
sS'Content'
p920
I01
sS'corp.vendio.com'
p921
I01
sS'at'
p922
I01
sS'Traeger'
p923
I01
sS'Policy'
p924
I01
sS'http'
p925
I01
sS'100'
p926
I01
sS'Merchant'
p927
I01
sS'Liability'
p928
I01
sS'Administrator'
p929
I01
sS'documents'
p930
I01
sS'Terms'
p931
I01
sS'Copyright'
p932
I01
sS'for'
p933
I01
sg88
I01
sg89
I01
sS'Agreement'
p934
I01
sS'Ste'
p935
I01
sg91
I01
sg490
I01
sS'only'
p936
I01
sS'of'
p937
I01
sg493
I01
sS'User'
p938
I01
sS'Disclaimer'
p939
I01
sg495
I01
sS'Services'
p940
I01
sS':'
p941
I01
sS'Indemnity'
p942
I01
sS'Assistance'
p943
I01
sg494
I01
sS'Website'
p944
I01
sS'Vendio'
p945
I01
sS'Dealio'
p946
I01
sS'7'
p947
I01
sg491
I01
sS'//www.vendio.com/company/webhosting_terms.html'
p948
I01
sS'CA'
p949
I01
sS'//www.vendio.com/company/ihost_terms.html'
p950
I01
sS'//www.vendio.com/company/fee_policy.html'
p951
I01
sS'Hosting'
p952
I01
sS'paid'
p953
I01
sS'WebHosting'
p954
I01
sS'//www.dealio.com/privacy.html'
p955
I01
sS'services'
p956
I01
sg492
I01
sS'The'
p957
I01
sS'//www.dealio.com/dealio_terms.html'
p958
I01
sS'by'
p959
I01
sS'San'
p960
I01
sS'851'
p961
I01
sS'Bruno'
p962
I01
sS'Stores'
p963
I01
sS'//www.vendio.com/company/pa_terms.html'
p964
I01
sS'Shopper'
p965
I01
sS'this'
p966
I01
sS'Communication'
p967
I01
sS'Image'
p968
I01
sS'General'
p969
I01
sS'Eligibility'
p970
I01
sS'//www.dealio.com/dealio_merchant_terms.html'
p971
I01
sS'Inc'
p972
I01
sS'incorporated'
p973
I01
sS'//www.vendio.com/company/comm_terms.html'
p974
I01
sS'following'
p975
I01
sS'address'
p976
I01
sS'//www.vendio.com/company/stores_terms.html'
p977
I01
sS'@'
p978
I01
sS'are'
p979
I01
sg32
tp980
a((dp981
S'purchases'
p982
I01
sS'version'
p983
I01
sS'distribute'
p984
I01
sS'one'
p985
I01
sS'including'
p986
I01
sS'auctiontimewatch'
p987
I01
sS'registration'
p988
I01
sS'agrees'
p989
I01
sS'inc'
p990
I01
sS'provided'
p991
I01
sS'use'
p992
I01
sS'copyright'
p993
I01
sS'program'
p994
I01
sS'damages'
p995
I01
sS'conditions'
p996
I01
sS'product'
p997
I01
sS'terms'
p998
I01
sS'shall'
p999
I01
sS'may'
p1000
I01
sS'agreement'
p1001
I01
sS'user'
p1002
I01
sS'licensed'
p1003
I01
sS'data'
p1004
I01
sS'customer'
p1005
I01
sS'nestersoft'
p1006
I01
sS'license'
p1007
I01
sS'rights'
p1008
I01
sS'trial'
p1009
I01
sS'implied'
p1010
I01
sS'software'
p1011
I01
sg32
tp1012
a((dp1013
S'google'
p1014
I01
sS'including'
p1015
I01
sS'unless'
p1016
I01
sS'content'
p1017
I01
sS'use'
p1018
I01
sS'additional'
p1019
I01
sS'service'
p1020
I01
sS'acknowledge'
p1021
I01
sS'provide'
p1022
I01
sS'legal'
p1023
I01
sg490
I01
sg491
I01
sg492
I01
sg493
I01
sg494
I01
sS'terms'
p1024
I01
sS'shall'
p1025
I01
sS'may'
p1026
I01
sS'agreement'
p1027
I01
sS'part'
p1028
I01
sS'licence'
p1029
I01
sS'services'
p1030
I01
sS'provided'
p1031
I01
sS'provision'
p1032
I01
sS'account'
p1033
I01
sS'rights'
p1034
I01
sS'information'
p1035
I01
sS'time'
p1036
I01
sS'agree'
p1037
I01
sS'software'
p1038
I01
sg32
tp1039
a((dp1040
S'distribute'
p1041
I01
sS'period'
p1042
I01
sS'licensed'
p1043
I01
sS'use'
p1044
I01
sS'copyright'
p1045
I01
sS'copies'
p1046
I01
sg490
I01
sg491
I01
sS'version'
p1047
I01
sS'damages'
p1048
I01
sS'mail'
p1049
I01
sS'warranties'
p1050
I01
sS'files'
p1051
I01
sS'may'
p1052
I01
sS'agreement'
p1053
I01
sS'liability'
p1054
I01
sS'user'
p1055
I01
sg492
I01
sS'must'
p1056
I01
sg26
I01
sS'license'
p1057
I01
sS'30'
p1058
I01
sS'days'
p1059
I01
sS'trial'
p1060
I01
sS'portion'
p1061
I01
sS'install'
p1062
I01
sS'distribution'
p1063
I01
sS'software'
p1064
I01
sS'sibcode'
p1065
I01
sS'disclaimer'
p1066
I01
sg32
tp1067
a((dp1068
S'set'
p1069
I01
sS'period'
p1070
I01
sS'module'
p1071
I01
sS'computer'
p1072
I01
sS'export'
p1073
I01
sS'use'
p1074
I01
sS'rights'
p1075
I01
sS'48'
p1076
I01
sS'section'
p1077
I01
sS'content'
p1078
I01
sS'forth'
p1079
I01
sS'terms'
p1080
I01
sS'shall'
p1081
I01
sS'may'
p1082
I01
sS'activation'
p1083
I01
sS'agreement'
p1084
I01
sS'updates'
p1085
I01
sS'227'
p1086
I01
sS'copy'
p1087
I01
sS'purchase'
p1088
I01
sg348
I01
sS'mekashron'
p1089
I01
sS'license'
p1090
I01
sg695
I01
sS'documentation'
p1091
I01
sS'applicable'
p1092
I01
sg697
I01
sg760
I01
sS'time'
p1093
I01
sS'software'
p1094
I01
sg32
tp1095
a((dp1096
S'all'
p1097
I01
sS'Thank'
p1098
I01
sS'Service'
p1099
I01
sS'THAT'
p1100
I01
sS'distribute'
p1101
I01
sS'including'
p1102
I01
sS'Warranties'
p1103
I01
sg89
I01
sg90
I01
sS'to'
p1104
I01
sS'WARRANTIES'
p1105
I01
sS'do'
p1106
I01
sS'DAMAGES'
p1107
I01
sS'not'
p1108
I01
sS'using'
p1109
I01
sS'THE'
p1110
I01
sS'conjunction'
p1111
I01
sS'MAY'
p1112
I01
sS'OF'
p1113
I01
sS'Intellectual'
p1114
I01
sS'these'
p1115
I01
sS'through'
p1116
I01
sS'OR'
p1117
I01
sS'Gmail'
p1118
I01
sS'Only'
p1119
I01
sS'out'
p1120
I01
sS'FOR'
p1121
I01
sS'Provisions'
p1122
I01
sS'review'
p1123
I01
sS'Miscellaneous'
p1124
I01
sS'comments'
p1125
I01
sS'LIABILITY'
p1126
I01
sS'NOTIFIER'
p1127
I01
sS'available'
p1128
I01
sS'be'
p1129
I01
sS'terms'
p1130
I01
sS'THIRD'
p1131
I01
sS'Property'
p1132
I01
sS'by'
p1133
I01
sS'Notifier'
p1134
I01
sS'AND'
p1135
I01
sS'on'
p1136
I01
sS'of'
p1137
I01
sS'could'
p1138
I01
sS'NOT'
p1139
I01
sS'or'
p1140
I01
sS'software'
p1141
I01
sS'Use'
p1142
I01
sS'bound'
p1143
I01
sS'Conditions'
p1144
I01
sS'your'
p1145
I01
sS'use'
p1146
I01
sS'from'
p1147
I01
sS'June'
p1148
I01
sS'copies'
p1149
I01
sg91
I01
sS'Liability'
p1150
I01
sS'GMAIL'
p1151
I01
sS'``'
p1152
I01
sS'that'
p1153
I01
sS'it'
p1154
I01
sS'CONSEQUENTIAL'
p1155
I01
sS'trying'
p1156
I01
sS'with'
p1157
I01
sS'made'
p1158
I01
sS'rights'
p1159
I01
sS'this'
p1160
I01
sS'manner'
p1161
I01
sS'and'
p1162
I01
sS'have'
p1163
I01
sS'is'
p1164
I01
sS'Limitation'
p1165
I01
sS"''"
p1166
I01
sS'at'
p1167
I01
sS'want'
p1168
I01
sS'in'
p1169
I01
sS'any'
p1170
I01
sS'if'
p1171
I01
sS'!'
p1172
I01
sS'Terms'
p1173
I01
sg88
I01
sS'ideas'
p1174
I01
sS'TO'
p1175
I01
sS'party'
p1176
I01
sS'you'
p1177
I01
sS"'s"
p1178
I01
sS'may'
p1179
I01
sS'services'
p1180
I01
sS'YOU'
p1181
I01
sS'law'
p1182
I01
sS'the'
p1183
I01
sS'Disclaimer'
p1184
I01
sS'Google'
p1185
I01
sS'third'
p1186
I01
sS'2004'
p1187
I01
sS'organization'
p1188
I01
sS'Non-commercial'
p1189
I01
sg32
tp1190
a((dp1191
S'warranty'
p1192
I01
sS'www'
p1193
I01
sS'eula'
p1194
I01
sS'period'
p1195
I01
sS'licensed'
p1196
I01
sS'including'
p1197
I01
sS'http'
p1198
I01
sS'subject'
p1199
I01
sS'use'
p1200
I01
sS'copy'
p1201
I01
sS'section'
p1202
I01
sg490
I01
sg492
I01
sS'party'
p1203
I01
sS'available'
p1204
I01
sS'product'
p1205
I01
sS'beinsync'
p1206
I01
sS'terms'
p1207
I01
sS'shall'
p1208
I01
sS'may'
p1209
I01
sS'agreement'
p1210
I01
sS'php'
p1211
I01
sS'purchase'
p1212
I01
sS'limitation'
p1213
I01
sS'license'
p1214
I01
sS'third'
p1215
I01
sS'rights'
p1216
I01
sS'applicable'
p1217
I01
sS'without'
p1218
I01
sS'software'
p1219
I01
sg32
tp1220
a((dp1221
S'incidental'
p1222
I01
sS'consent'
p1223
I01
sS'terminate'
p1224
I01
sS'number'
p1225
I01
sS'including'
p1226
I01
sS'use'
p1227
I01
sS'exclusion'
p1228
I01
sS'copyright'
p1229
I01
sg348
I01
sS'implied'
p1230
I01
sS'consequential'
p1231
I01
sS'conditions'
p1232
I01
sS'terms'
p1233
I01
sS'shall'
p1234
I01
sS'may'
p1235
I01
sS'agreement'
p1236
I01
sS'loss'
p1237
I01
sS'copy'
p1238
I01
sS'data'
p1239
I01
sS'comply'
p1240
I01
sS'entire'
p1241
I01
sS'limitation'
p1242
I01
sS'license'
p1243
I01
sS'accompanying'
p1244
I01
sS'documentation'
p1245
I01
sS'without'
p1246
I01
sS'mccafferty'
p1247
I01
sS'software'
p1248
I01
sS'agree'
p1249
I01
sS'laws'
p1250
I01
sg32
tp1251
a((dp1252
S'computer'
p1253
I01
sS'including'
p1254
I01
sS'prowebsurfer'
p1255
I01
sS'users'
p1256
I01
sS'information'
p1257
I01
sS'use'
p1258
I01
sS'copyright'
p1259
I01
sg490
I01
sg491
I01
sg492
I01
sg494
I01
sg495
I01
sS'transmit'
p1260
I01
sS'party'
p1261
I01
sS'available'
p1262
I01
sS'pws'
p1263
I01
sS'may'
p1264
I01
sS'agreement'
p1265
I01
sS'user'
p1266
I01
sS'data'
p1267
I01
sS'software'
p1268
I01
sS'15'
p1269
I01
sS'third'
p1270
I01
sS'license'
p1271
I01
sS'rights'
p1272
I01
sS'applicable'
p1273
I01
sS'without'
p1274
I01
sS'otherwise'
p1275
I01
sS'agree'
p1276
I01
sS'laws'
p1277
I01
sg32
tp1278
a((dp1279
S'warranty'
p1280
I01
sS'limited'
p1281
I01
sS'including'
p1282
I01
sS'us'
p1283
I01
sS'apply'
p1284
I01
sS'information'
p1285
I01
sS'use'
p1286
I01
sS'service'
p1287
I01
sg348
I01
sS'damages'
p1288
I01
sS'party'
p1289
I01
sS'conduit'
p1290
I01
sS'terms'
p1291
I01
sS'synccell'
p1292
I01
sS'shall'
p1293
I01
sS'may'
p1294
I01
sS'agreement'
p1295
I01
sS'liability'
p1296
I01
sS'provided'
p1297
I01
sS'change'
p1298
I01
sS'limitation'
p1299
I01
sS'license'
p1300
I01
sS'rights'
p1301
I01
sS'thescarms'
p1302
I01
sS'l'
p1303
I01
sS'contract'
p1304
I01
sS'without'
p1305
I01
sS'either'
p1306
I01
sS'agree'
p1307
I01
sS'software'
p1308
I01
sg32
tp1309
a((dp1310
S'limited'
p1311
I01
sS'eula'
p1312
I01
sS'proprietary'
p1313
I01
sS'including'
p1314
I01
sS'musicdns'
p1315
I01
sS'access'
p1316
I01
sS'use'
p1317
I01
sS'service'
p1318
I01
sS'means'
p1319
I01
sg490
I01
sg491
I01
sg492
I01
sg493
I01
sS'damages'
p1320
I01
sS'party'
p1321
I01
sg494
I01
sS'terms'
p1322
I01
sS'shall'
p1323
I01
sS'may'
p1324
I01
sS'fingerprint'
p1325
I01
sS'services'
p1326
I01
sS'musicip'
p1327
I01
sS'10'
p1328
I01
sS'third'
p1329
I01
sS'license'
p1330
I01
sS'rights'
p1331
I01
sS'work'
p1332
I01
sS'without'
p1333
I01
sS'agree'
p1334
I01
sS'software'
p1335
I01
sg32
tp1336
a((dp1337
S'jurisdiction'
p1338
I01
sS'site'
p1339
I01
sS'including'
p1340
I01
sS'parties'
p1341
I01
sS'event'
p1342
I01
sS'use'
p1343
I01
sS'usa'
p1344
I01
sS'title'
p1345
I01
sS'spamnullifier'
p1346
I01
sS'content'
p1347
I01
sS'version'
p1348
I01
sS'damages'
p1349
I01
sS'consequential'
p1350
I01
sS'warranties'
p1351
I01
sS'terms'
p1352
I01
sS'shall'
p1353
I01
sS'may'
p1354
I01
sS'agreement'
p1355
I01
sS'provision'
p1356
I01
sS'loss'
p1357
I01
sS'limitation'
p1358
I01
sS'license'
p1359
I01
sS'rights'
p1360
I01
sS'navexcel'
p1361
I01
sS'com'
p1362
I01
sS'without'
p1363
I01
sS'liable'
p1364
I01
sS'arising'
p1365
I01
sS'agree'
p1366
I01
sS'software'
p1367
I01
sg32
tp1368
a((dp1369
S'jurisdiction'
p1370
I01
sS'entity'
p1371
I01
sS'computer'
p1372
I01
sS'estsoft'
p1373
I01
sS'provided'
p1374
I01
sS'use'
p1375
I01
sS'copyright'
p1376
I01
sS'copies'
p1377
I01
sS'written'
p1378
I01
sS'damages'
p1379
I01
sS'party'
p1380
I01
sS'authorized'
p1381
I01
sS'terms'
p1382
I01
sS'shall'
p1383
I01
sS'may'
p1384
I01
sS'company'
p1385
I01
sS'agreement'
p1386
I01
sS'user'
p1387
I01
sS'copy'
p1388
I01
sS'adaptations'
p1389
I01
sS'license'
p1390
I01
sS'third'
p1391
I01
sS'rights'
p1392
I01
sS'whether'
p1393
I01
sS'suppliers'
p1394
I01
sS'computers'
p1395
I01
sS'applicable'
p1396
I01
sS'without'
p1397
I01
sS'laws'
p1398
I01
sS'software'
p1399
I01
sg32
tp1400
a((dp1401
S'site'
p1402
I01
sS'including'
p1403
I01
sS'parties'
p1404
I01
sS'linked'
p1405
I01
sS'information'
p1406
I01
sS'use'
p1407
I01
sS'service'
p1408
I01
sS'privacy'
p1409
I01
sS'personal'
p1410
I01
sS'responsible'
p1411
I01
sS'sites'
p1412
I01
sS'content'
p1413
I01
sS'party'
p1414
I01
sS'available'
p1415
I01
sS'terms'
p1416
I01
sS'shall'
p1417
I01
sS'may'
p1418
I01
sS'spiceworks'
p1419
I01
sS'part'
p1420
I01
sS'user'
p1421
I01
sS'services'
p1422
I01
sS'conjunction'
p1423
I01
sS'account'
p1424
I01
sS'third'
p1425
I01
sS'rights'
p1426
I01
sS'without'
p1427
I01
sS'time'
p1428
I01
sS'com'
p1429
I01
sS'agree'
p1430
I01
sS'software'
p1431
I01
sg32
tp1432
a((dp1433
S'pvt'
p1434
I01
sS'pro'
p1435
I01
sS'computer'
p1436
I01
sS'including'
p1437
I01
sS'indirect'
p1438
I01
sS'use'
p1439
I01
sS'doctor'
p1440
I01
sS'legal'
p1441
I01
sS'anyone'
p1442
I01
sS'damages'
p1443
I01
sS'consequential'
p1444
I01
sS'conditions'
p1445
I01
sS'warranties'
p1446
I01
sS'product'
p1447
I01
sS'shall'
p1448
I01
sS'may'
p1449
I01
sS'liable'
p1450
I01
sS'agreement'
p1451
I01
sS'user'
p1452
I01
sS'trademarks'
p1453
I01
sS'data'
p1454
I01
sS'loss'
p1455
I01
sS'license'
p1456
I01
sS'windows'
p1457
I01
sS'documentation'
p1458
I01
sS'contract'
p1459
I01
sS'person'
p1460
I01
sS'ltd'
p1461
I01
sS'licensor'
p1462
I01
sS'software'
p1463
I01
sg32
tp1464
a((dp1465
S'warranty'
p1466
I01
sS'right'
p1467
I01
sS'iopus'
p1468
I01
sS'intellectual'
p1469
I01
sS'high'
p1470
I01
sS'including'
p1471
I01
sS'provided'
p1472
I01
sS'use'
p1473
I01
sS'copyright'
p1474
I01
sS'damages'
p1475
I01
sS'maintenance'
p1476
I01
sS'consequential'
p1477
I01
sS'activities'
p1478
I01
sS'risk'
p1479
I01
sS'business'
p1480
I01
sS'shall'
p1481
I01
sS'agreement'
p1482
I01
sS'liability'
p1483
I01
sS'extent'
p1484
I01
sS'permitted'
p1485
I01
sS'loss'
p1486
I01
sS'limitation'
p1487
I01
sS'license'
p1488
I01
sS'rights'
p1489
I01
sS'expressly'
p1490
I01
sS'incidental'
p1491
I01
sS'information'
p1492
I01
sS'without'
p1493
I01
sS'property'
p1494
I01
sS'software'
p1495
I01
sg32
tp1496
a((dp1497
S'limited'
p1498
I01
sS'providers'
p1499
I01
sS'including'
p1500
I01
sS'fees'
p1501
I01
sS'message'
p1502
I01
sS'information'
p1503
I01
sS'use'
p1504
I01
sS'service'
p1505
I01
sS'member'
p1506
I01
sS'party'
p1507
I01
sS'mail'
p1508
I01
sS'content'
p1509
I01
sS'conditions'
p1510
I01
sS'terms'
p1511
I01
sS'shall'
p1512
I01
sS'may'
p1513
I01
sS'upon'
p1514
I01
sS'agreement'
p1515
I01
sS'messaging'
p1516
I01
sS'payment'
p1517
I01
sS'account'
p1518
I01
sS'telemessage'
p1519
I01
sS'rights'
p1520
I01
sS'messages'
p1521
I01
sS'agree'
p1522
I01
sS'time'
p1523
I01
sS'termination'
p1524
I01
sS'software'
p1525
I01
sS'cancellation'
p1526
I01
sS'otherwise'
p1527
I01
sg32
tp1528
a((dp1529
S'warranty'
p1530
I01
sS'limited'
p1531
I01
sS'one'
p1532
I01
sS'including'
p1533
I01
sS'52'
p1534
I01
sS'provided'
p1535
I01
sS'use'
p1536
I01
sS'transfer'
p1537
I01
sg490
I01
sS'program'
p1538
I01
sS'damages'
p1539
I01
sS'public'
p1540
I01
sS'may'
p1541
I01
sS'smspulse'
p1542
I01
sS'june'
p1543
I01
sS'agreement'
p1544
I01
sS'liability'
p1545
I01
sS'user'
p1546
I01
sS'installed'
p1547
I01
sS'copy'
p1548
I01
sS'class'
p1549
I01
sS'condition'
p1550
I01
sS'limitation'
p1551
I01
sS'rights'
p1552
I01
sS'notes'
p1553
I01
sS'documentation'
p1554
I01
sS'applicable'
p1555
I01
sS'server'
p1556
I01
sS'implied'
p1557
I01
sS'software'
p1558
I01
sg32
tp1559
a((dp1560
S'code'
p1561
I01
sS'version'
p1562
I01
sS'toolkit'
p1563
I01
sS'including'
p1564
I01
sS'eric'
p1565
I01
sS'provided'
p1566
I01
sS'use'
p1567
I01
sS'copyright'
p1568
I01
sS'purpose'
p1569
I01
sS'young'
p1570
I01
sS'written'
p1571
I01
sS'program'
p1572
I01
sS'damages'
p1573
I01
sS'mail'
p1574
I01
sS'conditions'
p1575
I01
sS'warranties'
p1576
I01
sS'product'
p1577
I01
sS'used'
p1578
I01
sS'may'
p1579
I01
sS'includes'
p1580
I01
sS'cryptsoft'
p1581
I01
sS'licence'
p1582
I01
sS'ouyangpingping'
p1583
I01
sS'must'
p1584
I01
sS'license'
p1585
I01
sS'openssl'
p1586
I01
sS'project'
p1587
I01
sS'following'
p1588
I01
sS'com'
p1589
I01
sS'software'
p1590
I01
sg32
tp1591
a((dp1592
S'warranty'
p1593
I01
sS'limited'
p1594
I01
sS'eula'
p1595
I01
sS'licensed'
p1596
I01
sS'computer'
p1597
I01
sS'including'
p1598
I01
sS'provided'
p1599
I01
sS'use'
p1600
I01
sS'law'
p1601
I01
sS'support'
p1602
I01
sS'machine'
p1603
I01
sS'evaluation'
p1604
I01
sS'product'
p1605
I01
sS'terms'
p1606
I01
sS'laws'
p1607
I01
sS'may'
p1608
I01
sS'agreement'
p1609
I01
sS'services'
p1610
I01
sS'copy'
p1611
I01
sg348
I01
sg380
I01
sS'license'
p1612
I01
sS'rights'
p1613
I01
sS'conditions'
p1614
I01
sS'applicable'
p1615
I01
sS'install'
p1616
I01
sS'software'
p1617
I01
sS'backup'
p1618
I01
sS'agree'
p1619
I01
sS'otherwise'
p1620
I01
sg32
tp1621
a((dp1622
S'period'
p1623
I01
sS'including'
p1624
I01
sS'increditools'
p1625
I01
sS'inc'
p1626
I01
sg490
I01
sS'use'
p1627
I01
sS'copyright'
p1628
I01
sS'invideo'
p1629
I01
sS'distributed'
p1630
I01
sS'content'
p1631
I01
sS'0'
p1632
I01
sS'written'
p1633
I01
sS'damages'
p1634
I01
sS'conditions'
p1635
I01
sS'shall'
p1636
I01
sS'may'
p1637
I01
sS'hereby'
p1638
I01
sS'agreement'
p1639
I01
sS'user'
p1640
I01
sS'fifteen'
p1641
I01
sS'permitted'
p1642
I01
sS'must'
p1643
I01
sS'licensors'
p1644
I01
sS'15'
p1645
I01
sS'license'
p1646
I01
sS'rights'
p1647
I01
sS'evaluation'
p1648
I01
sS'documentation'
p1649
I01
sS'without'
p1650
I01
sS'software'
p1651
I01
sg32
tp1652
a((dp1653
S'limited'
p1654
I01
sS'eula'
p1655
I01
sS'photo'
p1656
I01
sS'period'
p1657
I01
sS'related'
p1658
I01
sS'licensed'
p1659
I01
sS'single'
p1660
I01
sS'computer'
p1661
I01
sS'cdalbum'
p1662
I01
sS'provided'
p1663
I01
sS'use'
p1664
I01
sS'fee'
p1665
I01
sS'end'
p1666
I01
sS'distributed'
p1667
I01
sS'henning'
p1668
I01
sS'ph'
p1669
I01
sS'showyourphotos'
p1670
I01
sS'limitations'
p1671
I01
sS'product'
p1672
I01
sS'used'
p1673
I01
sS'may'
p1674
I01
sS'agreement'
p1675
I01
sS'user'
p1676
I01
sS'installed'
p1677
I01
sS'cd'
p1678
I01
sS'license'
p1679
I01
sS'materials'
p1680
I01
sS'install'
p1681
I01
sS'com'
p1682
I01
sS'software'
p1683
I01
sg32
tp1684
a((dp1685
S'licensee'
p1686
I01
sS'computer'
p1687
I01
sS'including'
p1688
I01
sS'inc'
p1689
I01
sS'provided'
p1690
I01
sS'use'
p1691
I01
sS'copyright'
p1692
I01
sS'purpose'
p1693
I01
sS'government'
p1694
I01
sS'copies'
p1695
I01
sS'damages'
p1696
I01
sS'party'
p1697
I01
sS'conditions'
p1698
I01
sS'product'
p1699
I01
sS'terms'
p1700
I01
sS'shall'
p1701
I01
sS'may'
p1702
I01
sS'inboxer'
p1703
I01
sS'hereby'
p1704
I01
sS'psf'
p1705
I01
sS'agreement'
p1706
I01
sS'thereof'
p1707
I01
sS'copy'
p1708
I01
sS'license'
p1709
I01
sS'documentation'
p1710
I01
sS'information'
p1711
I01
sS'without'
p1712
I01
sS'otherwise'
p1713
I01
sS'agree'
p1714
I01
sS'software'
p1715
I01
sg32
tp1716
a((dp1717
S'exclusive'
p1718
I01
sS'states'
p1719
I01
sS'computer'
p1720
I01
sS'including'
p1721
I01
sS'data'
p1722
I01
sS'inc'
p1723
I01
sS'provided'
p1724
I01
sS'use'
p1725
I01
sS'fee'
p1726
I01
sS'copyright'
p1727
I01
sS'transfer'
p1728
I01
sS'support'
p1729
I01
sS'law'
p1730
I01
sS'separate'
p1731
I01
sS'may'
p1732
I01
sS'registered'
p1733
I01
sS'liability'
p1734
I01
sS'united'
p1735
I01
sS'user'
p1736
I01
sS'extent'
p1737
I01
sS'services'
p1738
I01
sS'copy'
p1739
I01
sS'provision'
p1740
I01
sS'purchase'
p1741
I01
sS'license'
p1742
I01
sS'rights'
p1743
I01
sS'computers'
p1744
I01
sS'applicable'
p1745
I01
sS'apples'
p1746
I01
sS'software'
p1747
I01
sg32
tp1748
a((dp1749
S'set'
p1750
I01
sS'site'
p1751
I01
sS'microtelco'
p1752
I01
sS'including'
p1753
I01
sS'web'
p1754
I01
sS'use'
p1755
I01
sS'law'
p1756
I01
sS'service'
p1757
I01
sS'notice'
p1758
I01
sS'shall'
p1759
I01
sS'damages'
p1760
I01
sS'party'
p1761
I01
sS'product'
p1762
I01
sS'terms'
p1763
I01
sS'information'
p1764
I01
sS'may'
p1765
I01
sS'agreement'
p1766
I01
sS'fax'
p1767
I01
sS'user'
p1768
I01
sS'services'
p1769
I01
sS'provided'
p1770
I01
sS'account'
p1771
I01
sS'limitation'
p1772
I01
sS'third'
p1773
I01
sS'rights'
p1774
I01
sS'expressly'
p1775
I01
sS'without'
p1776
I01
sS'quicknet'
p1777
I01
sS'agree'
p1778
I01
sS'software'
p1779
I01
sg32
tp1780
a((dp1781
S'code'
p1782
I01
sS'installed'
p1783
I01
sS'including'
p1784
I01
sS'eric'
p1785
I01
sS'provided'
p1786
I01
sS'use'
p1787
I01
sS'copyright'
p1788
I01
sS'young'
p1789
I01
sS'written'
p1790
I01
sS'implied'
p1791
I01
sS'damages'
p1792
I01
sS'conditions'
p1793
I01
sS'product'
p1794
I01
sS'used'
p1795
I01
sS'may'
p1796
I01
sS'commercial'
p1797
I01
sS'includes'
p1798
I01
sS'liability'
p1799
I01
sS'cryptsoft'
p1800
I01
sS'must'
p1801
I01
sS'redistributions'
p1802
I01
sS'license'
p1803
I01
sS'febooti'
p1804
I01
sS'openssl'
p1805
I01
sS'project'
p1806
I01
sS'without'
p1807
I01
sS'following'
p1808
I01
sS'distribution'
p1809
I01
sS'com'
p1810
I01
sS'software'
p1811
I01
sg32
tp1812
a((dp1813
S'warranty'
p1814
I01
sS'eula'
p1815
I01
sS'period'
p1816
I01
sS'one'
p1817
I01
sS'computer'
p1818
I01
sS'including'
p1819
I01
sS'names'
p1820
I01
sS'another'
p1821
I01
sS'safestmail'
p1822
I01
sS'previous'
p1823
I01
sS'use'
p1824
I01
sS'upgrade'
p1825
I01
sS'transfer'
p1826
I01
sS'version'
p1827
I01
sS'test'
p1828
I01
sS'used'
p1829
I01
sS'terms'
p1830
I01
sS'shall'
p1831
I01
sS'may'
p1832
I01
sS'agreement'
p1833
I01
sS'purpose'
p1834
I01
sS'trademarks'
p1835
I01
sS'copy'
p1836
I01
sg380
I01
sS'license'
p1837
I01
sS'rights'
p1838
I01
sS'install'
p1839
I01
sS'otherwise'
p1840
I01
sS'agree'
p1841
I01
sS'software'
p1842
I01
sg32
tp1843
a((dp1844
S'warranty'
p1845
I01
sS'limited'
p1846
I01
sS'outlook'
p1847
I01
sS'reserved'
p1848
I01
sS'exclusive'
p1849
I01
sS'including'
p1850
I01
sS'inc'
p1851
I01
sS'use'
p1852
I01
sS'exclusion'
p1853
I01
sS'copyright'
p1854
I01
sS'crystalgraphics'
p1855
I01
sS'authorized'
p1856
I01
sS'stationery'
p1857
I01
sS'damages'
p1858
I01
sS'files'
p1859
I01
sS'product'
p1860
I01
sS'used'
p1861
I01
sS'terms'
p1862
I01
sS'may'
p1863
I01
sS'agreement'
p1864
I01
sS'liability'
p1865
I01
sS'trademarks'
p1866
I01
sS'copy'
p1867
I01
sS'loss'
p1868
I01
sS'license'
p1869
I01
sS'rights'
p1870
I01
sS'documentation'
p1871
I01
sS'powerplugs'
p1872
I01
sS'implied'
p1873
I01
sS'2004'
p1874
I01
sg32
tp1875
a((dp1876
S'warranty'
p1877
I01
sS'limited'
p1878
I01
sS'eula'
p1879
I01
sS'one'
p1880
I01
sS'services'
p1881
I01
sS'including'
p1882
I01
sS'inc'
p1883
I01
sS'provided'
p1884
I01
sS'use'
p1885
I01
sS'law'
p1886
I01
sS'privacy'
p1887
I01
sS'support'
p1888
I01
sS'except'
p1889
I01
sS'damages'
p1890
I01
sS'conditions'
p1891
I01
sS'mayday'
p1892
I01
sS'product'
p1893
I01
sS'terms'
p1894
I01
sS'may'
p1895
I01
sS'remedy'
p1896
I01
sS'user'
p1897
I01
sS'device'
p1898
I01
sS'copy'
p1899
I01
sS'subscription'
p1900
I01
sS'license'
p1901
I01
sS'rights'
p1902
I01
sS'applicable'
p1903
I01
sS'materials'
p1904
I01
sS'install'
p1905
I01
sS'software'
p1906
I01
sg32
tp1907
a((dp1908
S'limited'
p1909
I01
sS'www'
p1910
I01
sS'version'
p1911
I01
sS'consultants'
p1912
I01
sS'including'
p1913
I01
sS'result'
p1914
I01
sS'terms'
p1915
I01
sS'skill'
p1916
I01
sS'provided'
p1917
I01
sS'use'
p1918
I01
sS'copyright'
p1919
I01
sS'distributed'
p1920
I01
sS'crew'
p1921
I01
sS'program'
p1922
I01
sS'warranties'
p1923
I01
sS'http'
p1924
I01
sS'may'
p1925
I01
sS'liable'
p1926
I01
sg348
I01
sS'liability'
p1927
I01
sS'using'
p1928
I01
sS'std'
p1929
I01
sS'loss'
p1930
I01
sS'kind'
p1931
I01
sS'license'
p1932
I01
sS'kmanywhere'
p1933
I01
sS'implied'
p1934
I01
sS'2005'
p1935
I01
sS'essential'
p1936
I01
sS'software'
p1937
I01
sg32
tp1938
a((dp1939
S'right'
p1940
I01
sS'including'
p1941
I01
sS'us'
p1942
I01
sS'information'
p1943
I01
sS'use'
p1944
I01
sS'enc'
p1945
I01
sS'service'
p1946
I01
sS'privacy'
p1947
I01
sS'provide'
p1948
I01
sS'damages'
p1949
I01
sS'party'
p1950
I01
sS'conditions'
p1951
I01
sS'warranties'
p1952
I01
sS'terms'
p1953
I01
sS'may'
p1954
I01
sS'material'
p1955
I01
sS'agreement'
p1956
I01
sS'others'
p1957
I01
sS'using'
p1958
I01
sS'software'
p1959
I01
sS'property'
p1960
I01
sS'eblvd'
p1961
I01
sS'license'
p1962
I01
sS'rights'
p1963
I01
sS'contract'
p1964
I01
sS'communications'
p1965
I01
sS'without'
p1966
I01
sS'laws'
p1967
I01
sS'agree'
p1968
I01
sS'otherwise'
p1969
I01
sg32
tp1970
a((dp1971
S'warranty'
p1972
I01
sS'limited'
p1973
I01
sS'eula'
p1974
I01
sS'sample'
p1975
I01
sS'code'
p1976
I01
sS'including'
p1977
I01
sS'information'
p1978
I01
sS'use'
p1979
I01
sS'end'
p1980
I01
sS'transfer'
p1981
I01
sS'application'
p1982
I01
sS'version'
p1983
I01
sS'warranties'
p1984
I01
sS'product'
p1985
I01
sS'used'
p1986
I01
sS'terms'
p1987
I01
sS'shall'
p1988
I01
sS'may'
p1989
I01
sS'liability'
p1990
I01
sS'user'
p1991
I01
sS'provided'
p1992
I01
sS'copy'
p1993
I01
sS'imedialearn'
p1994
I01
sS'license'
p1995
I01
sS'rights'
p1996
I01
sS'trial'
p1997
I01
sS'computer'
p1998
I01
sS'time'
p1999
I01
sS'otherwise'
p2000
I01
sS'software'
p2001
I01
sg32
tp2002
a((dp2003
S'intellectual'
p2004
I01
sS'states'
p2005
I01
sS'computer'
p2006
I01
sS'export'
p2007
I01
sS'property'
p2008
I01
sS'use'
p2009
I01
sS'copyright'
p2010
I01
sS'limitation'
p2011
I01
sS'used'
p2012
I01
sS'terms'
p2013
I01
sS'shall'
p2014
I01
sS'may'
p2015
I01
sS'commercial'
p2016
I01
sS'agreement'
p2017
I01
sS'liability'
p2018
I01
sS'password'
p2019
I01
sS'data'
p2020
I01
sS'comply'
p2021
I01
sS'software'
p2022
I01
sg348
I01
sS'xlt'
p2023
I01
sS'license'
p2024
I01
sS'rights'
p2025
I01
sS'documentation'
p2026
I01
sS'applicable'
p2027
I01
sS'without'
p2028
I01
sS'including'
p2029
I01
sS'otherwise'
p2030
I01
sS'agree'
p2031
I01
sS'laws'
p2032
I01
sg32
tp2033
a((dp2034
S'warranty'
p2035
I01
sS'violation'
p2036
I01
sS'licensed'
p2037
I01
sS'organizer'
p2038
I01
sS'inc'
p2039
I01
sS'one'
p2040
I01
sS'anyone'
p2041
I01
sS'use'
p2042
I01
sS'self'
p2043
I01
sS'copies'
p2044
I01
sS'exclusively'
p2045
I01
sS'access'
p2046
I01
sS'may'
p2047
I01
sS'version'
p2048
I01
sS'evaluation'
p2049
I01
sS'files'
p2050
I01
sS'terms'
p2051
I01
sS'shall'
p2052
I01
sS'dreamystar'
p2053
I01
sS'agreement'
p2054
I01
sS'copy'
p2055
I01
sS'data'
p2056
I01
sS'unregistered'
p2057
I01
sS'kind'
p2058
I01
sS'license'
p2059
I01
sS'rights'
p2060
I01
sS'dreamysoft'
p2061
I01
sS'purchase'
p2062
I01
sS'agree'
p2063
I01
sS'software'
p2064
I01
sg32
tp2065
a((dp2066
S'warranty'
p2067
I01
sS'limited'
p2068
I01
sS'period'
p2069
I01
sS'one'
p2070
I01
sS'edition'
p2071
I01
sS'computer'
p2072
I01
sS'provided'
p2073
I01
sS'use'
p2074
I01
sS'copyright'
p2075
I01
sS'copies'
p2076
I01
sS'evaluation'
p2077
I01
sS'non'
p2078
I01
sS'used'
p2079
I01
sS'means'
p2080
I01
sS'may'
p2081
I01
sS'commercial'
p2082
I01
sS'agreement'
p2083
I01
sS'user'
p2084
I01
sS'installed'
p2085
I01
sS'copy'
p2086
I01
sS'class'
p2087
I01
sS'must'
p2088
I01
sS'license'
p2089
I01
sS'rights'
p2090
I01
sS'computers'
p2091
I01
sS'days'
p2092
I01
sS'server'
p2093
I01
sS'install'
p2094
I01
sS'datamystic'
p2095
I01
sS'software'
p2096
I01
sg32
tp2097
a((dp2098
S'limited'
p2099
I01
sS'providers'
p2100
I01
sS'including'
p2101
I01
sS'fees'
p2102
I01
sS'message'
p2103
I01
sS'information'
p2104
I01
sS'use'
p2105
I01
sS'service'
p2106
I01
sS'member'
p2107
I01
sS'party'
p2108
I01
sS'mail'
p2109
I01
sS'content'
p2110
I01
sS'conditions'
p2111
I01
sS'terms'
p2112
I01
sS'shall'
p2113
I01
sS'may'
p2114
I01
sS'upon'
p2115
I01
sS'agreement'
p2116
I01
sS'messaging'
p2117
I01
sS'payment'
p2118
I01
sS'account'
p2119
I01
sS'telemessage'
p2120
I01
sS'rights'
p2121
I01
sS'messages'
p2122
I01
sS'agree'
p2123
I01
sS'time'
p2124
I01
sS'termination'
p2125
I01
sS'software'
p2126
I01
sS'cancellation'
p2127
I01
sS'otherwise'
p2128
I01
sg32
tp2129
a((dp2130
S'purchaser'
p2131
I01
sS'warranty'
p2132
I01
sS'cl'
p2133
I01
sS'caused'
p2134
I01
sS'neon'
p2135
I01
sS'period'
p2136
I01
sS'agents'
p2137
I01
sS'authorises'
p2138
I01
sS'use'
p2139
I01
sS'codes'
p2140
I01
sS'limited'
p2141
I01
sS'simultaneously'
p2142
I01
sS'may'
p2143
I01
sS'agreement'
p2144
I01
sS'number'
p2145
I01
sS'user'
p2146
I01
sS'licence'
p2147
I01
sS'sine'
p2148
I01
sS'provision'
p2149
I01
sS'must'
p2150
I01
sS'purchase'
p2151
I01
sS'bar'
p2152
I01
sS'rights'
p2153
I01
sS'employees'
p2154
I01
sS'computers'
p2155
I01
sS'trial'
p2156
I01
sS'without'
p2157
I01
sS'arising'
p2158
I01
sS'agree'
p2159
I01
sS'software'
p2160
I01
sg32
tp2161
a((dp2162
S'warranty'
p2163
I01
sS'soft'
p2164
I01
sS'outlook'
p2165
I01
sS'one'
p2166
I01
sS'including'
p2167
I01
sS'inc'
p2168
I01
sS'use'
p2169
I01
sS'version'
p2170
I01
sS'damages'
p2171
I01
sS'consequential'
p2172
I01
sS'evaluation'
p2173
I01
sS'used'
p2174
I01
sS'terms'
p2175
I01
sS'may'
p2176
I01
sS'registered'
p2177
I01
sS'express'
p2178
I01
sS'agreement'
p2179
I01
sS'liability'
p2180
I01
sS'using'
p2181
I01
sS'loss'
p2182
I01
sS'limitation'
p2183
I01
sS'license'
p2184
I01
sS'rights'
p2185
I01
sS'com'
p2186
I01
sS'documentation'
p2187
I01
sS'us'
p2188
I01
sS'without'
p2189
I01
sS'genie'
p2190
I01
sS'backup'
p2191
I01
sS'software'
p2192
I01
sg32
tp2193
a((dp2194
S'licensee'
p2195
I01
sS'one'
p2196
I01
sS'computer'
p2197
I01
sS'including'
p2198
I01
sS'information'
p2199
I01
sS'use'
p2200
I01
sS'fee'
p2201
I01
sS'means'
p2202
I01
sg490
I01
sg491
I01
sg492
I01
sS'provider'
p2203
I01
sS'breach'
p2204
I01
sS'product'
p2205
I01
sS'terms'
p2206
I01
sS'confidential'
p2207
I01
sS'shall'
p2208
I01
sS'may'
p2209
I01
sS'hereby'
p2210
I01
sS'agreement'
p2211
I01
sS'otherwise'
p2212
I01
sS'intellectual'
p2213
I01
sS'licence'
p2214
I01
sS'11'
p2215
I01
sS'third'
p2216
I01
sS'rights'
p2217
I01
sS'time'
p2218
I01
sS'termination'
p2219
I01
sS'property'
p2220
I01
sS'software'
p2221
I01
sg32
tp2222
a((dp2223
S'integrations'
p2224
I01
sS'thereof'
p2225
I01
sS'states'
p2226
I01
sS'single'
p2227
I01
sS'computer'
p2228
I01
sS'including'
p2229
I01
sS'inc'
p2230
I01
sS'use'
p2231
I01
sS'copyright'
p2232
I01
sS'damages'
p2233
I01
sS'warranties'
p2234
I01
sS'terms'
p2235
I01
sS'business'
p2236
I01
sS'shall'
p2237
I01
sS'may'
p2238
I01
sS'restrictions'
p2239
I01
sS'agreement'
p2240
I01
sS'user'
p2241
I01
sS'trademarks'
p2242
I01
sS'intense'
p2243
I01
sS'loss'
p2244
I01
sS'limitation'
p2245
I01
sS'license'
p2246
I01
sS'rights'
p2247
I01
sS'products'
p2248
I01
sS'install'
p2249
I01
sS'export'
p2250
I01
sS'software'
p2251
I01
sS'agree'
p2252
I01
sS'laws'
p2253
I01
sg32
tp2254
a((dp2255
S'and'
p2256
I01
sS'Fee'
p2257
I01
sS'Ave.'
p2258
I01
sS'94066'
p2259
I01
sS'reference'
p2260
I01
sS'Privacy'
p2261
I01
sS'Personal'
p2262
I01
sS'into'
p2263
I01
sS'Acceptance'
p2264
I01
sS'Administration'
p2265
I01
sg90
I01
sS'Content'
p2266
I01
sS'corp.vendio.com'
p2267
I01
sS'at'
p2268
I01
sS'Traeger'
p2269
I01
sS'Policy'
p2270
I01
sS'http'
p2271
I01
sS'100'
p2272
I01
sS'Merchant'
p2273
I01
sS'Liability'
p2274
I01
sS'Administrator'
p2275
I01
sS'documents'
p2276
I01
sS'Terms'
p2277
I01
sS'Copyright'
p2278
I01
sS'for'
p2279
I01
sg88
I01
sg89
I01
sS'Agreement'
p2280
I01
sS'Ste'
p2281
I01
sg91
I01
sg490
I01
sS'only'
p2282
I01
sS'of'
p2283
I01
sg493
I01
sS'User'
p2284
I01
sS'Disclaimer'
p2285
I01
sg495
I01
sS'Services'
p2286
I01
sg941
I01
sS'Indemnity'
p2287
I01
sS'Assistance'
p2288
I01
sg494
I01
sS'Website'
p2289
I01
sS'Vendio'
p2290
I01
sS'Dealio'
p2291
I01
sg947
I01
sg491
I01
sS'//www.vendio.com/company/webhosting_terms.html'
p2292
I01
sS'CA'
p2293
I01
sS'//www.vendio.com/company/ihost_terms.html'
p2294
I01
sS'//www.vendio.com/company/fee_policy.html'
p2295
I01
sS'Hosting'
p2296
I01
sS'paid'
p2297
I01
sS'WebHosting'
p2298
I01
sS'//www.dealio.com/privacy.html'
p2299
I01
sS'services'
p2300
I01
sg492
I01
sS'The'
p2301
I01
sS'//www.dealio.com/dealio_terms.html'
p2302
I01
sS'by'
p2303
I01
sS'San'
p2304
I01
sS'851'
p2305
I01
sS'Bruno'
p2306
I01
sS'Stores'
p2307
I01
sS'//www.vendio.com/company/pa_terms.html'
p2308
I01
sS'Shopper'
p2309
I01
sS'this'
p2310
I01
sS'Communication'
p2311
I01
sS'Image'
p2312
I01
sS'General'
p2313
I01
sS'Eligibility'
p2314
I01
sS'//www.dealio.com/dealio_merchant_terms.html'
p2315
I01
sS'Inc'
p2316
I01
sS'incorporated'
p2317
I01
sS'//www.vendio.com/company/comm_terms.html'
p2318
I01
sS'following'
p2319
I01
sS'address'
p2320
I01
sS'//www.vendio.com/company/stores_terms.html'
p2321
I01
sg978
I01
sS'are'
p2322
I01
sg32
tp2323
a((dp2324
S'limited'
p2325
I01
sS'period'
p2326
I01
sS'one'
p2327
I01
sS'provided'
p2328
I01
sS'use'
p2329
I01
sS'copy'
p2330
I01
sS'transfer'
p2331
I01
sS'granted'
p2332
I01
sg490
I01
sS'implied'
p2333
I01
sS'product'
p2334
I01
sS'terms'
p2335
I01
sS'may'
p2336
I01
sS'upon'
p2337
I01
sS'agreement'
p2338
I01
sS'liability'
p2339
I01
sS'user'
p2340
I01
sS'law'
p2341
I01
sS'obtained'
p2342
I01
sS'property'
p2343
I01
sS'license'
p2344
I01
sS'rights'
p2345
I01
sS'whether'
p2346
I01
sS'applicable'
p2347
I01
sS'contract'
p2348
I01
sS'materials'
p2349
I01
sS'products'
p2350
I01
sS'software'
p2351
I01
sS'articsoft'
p2352
I01
sS'replacement'
p2353
I01
sg32
tp2354
a((dp2355
S'unsolicited'
p2356
I01
sS'violation'
p2357
I01
sS'consent'
p2358
I01
sS'names'
p2359
I01
sS'another'
p2360
I01
sS'llc'
p2361
I01
sS'respective'
p2362
I01
sS'violate'
p2363
I01
sS'service'
p2364
I01
sS'except'
p2365
I01
sS'content'
p2366
I01
sS'ipnote'
p2367
I01
sS'provider'
p2368
I01
sS'dalmatech'
p2369
I01
sS'used'
p2370
I01
sS'may'
p2371
I01
sS'registered'
p2372
I01
sS'internet'
p2373
I01
sS'agreement'
p2374
I01
sS'user'
p2375
I01
sS'trademarks'
p2376
I01
sS'services'
p2377
I01
sS'using'
p2378
I01
sS'unregistered'
p2379
I01
sS'owners'
p2380
I01
sS'isp'
p2381
I01
sS'either'
p2382
I01
sS'property'
p2383
I01
sS'backup'
p2384
I01
sS'software'
p2385
I01
sg32
tp2386
a((dp2387
S'warranty'
p2388
I01
sS'exclusive'
p2389
I01
sS'proprietary'
p2390
I01
sS'prohibit'
p2391
I01
sS'labels'
p2392
I01
sS'terminate'
p2393
I01
sS'intellectual'
p2394
I01
sS'computer'
p2395
I01
sS'including'
p2396
I01
sS'cost'
p2397
I01
sS'provided'
p2398
I01
sS'use'
p2399
I01
sS'transfer'
p2400
I01
sS'except'
p2401
I01
sS'damages'
p2402
I01
sS'notices'
p2403
I01
sS'performance'
p2404
I01
sS'non'
p2405
I01
sS'business'
p2406
I01
sS'may'
p2407
I01
sS'ownership'
p2408
I01
sS'copy'
p2409
I01
sS'advanced'
p2410
I01
sS'entire'
p2411
I01
sS'limitation'
p2412
I01
sS'license'
p2413
I01
sS'rights'
p2414
I01
sS'without'
p2415
I01
sS'termination'
p2416
I01
sS'software'
p2417
I01
sg32
tp2418
a((dp2419
S'eula'
p2420
I01
sS'speechexpert'
p2421
I01
sS'period'
p2422
I01
sS'computer'
p2423
I01
sS'including'
p2424
I01
sS'provided'
p2425
I01
sS'use'
p2426
I01
sS'group'
p2427
I01
sS'copyright'
p2428
I01
sS'author'
p2429
I01
sS'copies'
p2430
I01
sS'damages'
p2431
I01
sS'limitations'
p2432
I01
sS'product'
p2433
I01
sS'terms'
p2434
I01
sS'users'
p2435
I01
sS'shall'
p2436
I01
sS'may'
p2437
I01
sS'agreement'
p2438
I01
sS'part'
p2439
I01
sS'user'
p2440
I01
sS'using'
p2441
I01
sS'copy'
p2442
I01
sS'must'
p2443
I01
sS'loss'
p2444
I01
sS'license'
p2445
I01
sS'rights'
p2446
I01
sS'without'
p2447
I01
sS'either'
p2448
I01
sS'software'
p2449
I01
sg32
tp2450
a((dp2451
S'features'
p2452
I01
sS'site'
p2453
I01
sS'including'
p2454
I01
sS'information'
p2455
I01
sS'use'
p2456
I01
sS'service'
p2457
I01
sS'damages'
p2458
I01
sS'email'
p2459
I01
sS'available'
p2460
I01
sS'notice'
p2461
I01
sS'terms'
p2462
I01
sS'shall'
p2463
I01
sS'may'
p2464
I01
sS'agreement'
p2465
I01
sS'part'
p2466
I01
sS'web'
p2467
I01
sS'services'
p2468
I01
sS'provided'
p2469
I01
sS'readnotify'
p2470
I01
sS'license'
p2471
I01
sS'rights'
p2472
I01
sS'com'
p2473
I01
sS'plugin'
p2474
I01
sS'different'
p2475
I01
sS'without'
p2476
I01
sS'time'
p2477
I01
sS'security'
p2478
I01
sS'changes'
p2479
I01
sS'agree'
p2480
I01
sS'software'
p2481
I01
sg32
tp2482
a((dp2483
S'warranty'
p2484
I01
sS'program'
p2485
I01
sS'documentation'
p2486
I01
sS'period'
p2487
I01
sS'licensed'
p2488
I01
sS'registration'
p2489
I01
sS'tosc'
p2490
I01
sS'use'
p2491
I01
sS'network'
p2492
I01
sS'copyright'
p2493
I01
sS'ordering'
p2494
I01
sS'copies'
p2495
I01
sS'access'
p2496
I01
sS'charge'
p2497
I01
sS'version'
p2498
I01
sS'call'
p2499
I01
sS'international'
p2500
I01
sS'evaluation'
p2501
I01
sS'may'
p2502
I01
sS'registered'
p2503
I01
sS'agreement'
p2504
I01
sS'using'
p2505
I01
sS'day'
p2506
I01
sS'must'
p2507
I01
sS'license'
p2508
I01
sS'30'
p2509
I01
sS'different'
p2510
I01
sS'without'
p2511
I01
sS'soft'
p2512
I01
sS'software'
p2513
I01
sg32
tp2514
a((dp2515
S'warranty'
p2516
I01
sS'exclusive'
p2517
I01
sS'results'
p2518
I01
sS'product'
p2519
I01
sS'result'
p2520
I01
sS'provided'
p2521
I01
sS'use'
p2522
I01
sS'copyright'
p2523
I01
sS'data'
p2524
I01
sS'distributed'
p2525
I01
sS'written'
p2526
I01
sS'non'
p2527
I01
sS'terms'
p2528
I01
sS'permission'
p2529
I01
sS'may'
p2530
I01
sS'tialsoft'
p2531
I01
sS'agreement'
p2532
I01
sS'nettrace'
p2533
I01
sS'using'
p2534
I01
sS'holder'
p2535
I01
sS'loss'
p2536
I01
sS'kind'
p2537
I01
sS'property'
p2538
I01
sS'magic'
p2539
I01
sS'license'
p2540
I01
sS'rights'
p2541
I01
sS'distribution'
p2542
I01
sS'shareware'
p2543
I01
sS'agree'
p2544
I01
sS'software'
p2545
I01
sg32
tp2546
a((dp2547
S'warranty'
p2548
I01
sS'limited'
p2549
I01
sS'period'
p2550
I01
sS'licensed'
p2551
I01
sS'one'
p2552
I01
sS'provided'
p2553
I01
sS'use'
p2554
I01
sS'copyright'
p2555
I01
sS'la'
p2556
I01
sS'materials'
p2557
I01
sg490
I01
sS'keys'
p2558
I01
sg492
I01
sS'centauri'
p2559
I01
sS'product'
p2560
I01
sS'terms'
p2561
I01
sS'may'
p2562
I01
sS'agreement'
p2563
I01
sS'liability'
p2564
I01
sS'extent'
p2565
I01
sS'alpha'
p2566
I01
sS'law'
p2567
I01
sS'must'
p2568
I01
sS'limitation'
p2569
I01
sS'license'
p2570
I01
sS'rights'
p2571
I01
sS'accompanying'
p2572
I01
sS'without'
p2573
I01
sS'time'
p2574
I01
sS'software'
p2575
I01
sg32
tp2576
a((dp2577
S'providers'
p2578
I01
sS'site'
p2579
I01
sS'smartshopper'
p2580
I01
sS'computer'
p2581
I01
sS'including'
p2582
I01
sS'comparative'
p2583
I01
sS'terms'
p2584
I01
sS'alternative'
p2585
I01
sS'information'
p2586
I01
sS'use'
p2587
I01
sS'service'
p2588
I01
sS'privacy'
p2589
I01
sS'sites'
p2590
I01
sS'content'
p2591
I01
sS'party'
p2592
I01
sS'shopping'
p2593
I01
sS'shall'
p2594
I01
sS'may'
p2595
I01
sS'agreement'
p2596
I01
sS'liability'
p2597
I01
sS'services'
p2598
I01
sS'provided'
p2599
I01
sS'search'
p2600
I01
sS'third'
p2601
I01
sS'rights'
p2602
I01
sS'without'
p2603
I01
sS'products'
p2604
I01
sS'changes'
p2605
I01
sS'agree'
p2606
I01
sS'software'
p2607
I01
sg32
tp2608
a((dp2609
S'warranty'
p2610
I01
sS'limited'
p2611
I01
sS'right'
p2612
I01
sS'one'
p2613
I01
sS'including'
p2614
I01
sS'quiksoft'
p2615
I01
sS'subject'
p2616
I01
sS'provided'
p2617
I01
sS'use'
p2618
I01
sS'government'
p2619
I01
sS'copies'
p2620
I01
sS'anyone'
p2621
I01
sS'application'
p2622
I01
sS'arbitrator'
p2623
I01
sg492
I01
sS'party'
p2624
I01
sS'developer'
p2625
I01
sS'conditions'
p2626
I01
sS'terms'
p2627
I01
sS'shall'
p2628
I01
sS'may'
p2629
I01
sS'agreement'
p2630
I01
sS'key'
p2631
I01
sS'license'
p2632
I01
sS'rights'
p2633
I01
sS'accordance'
p2634
I01
sS'install'
p2635
I01
sS'following'
p2636
I01
sS'agree'
p2637
I01
sS'software'
p2638
I01
sg32
tp2639
a((dp2640
S'limited'
p2641
I01
sS'eula'
p2642
I01
sS'licensee'
p2643
I01
sS'applicable'
p2644
I01
sS'including'
p2645
I01
sS'et'
p2646
I01
sS'provided'
p2647
I01
sS'use'
p2648
I01
sS'zip'
p2649
I01
sS'la'
p2650
I01
sS'support'
p2651
I01
sS'damages'
p2652
I01
sS'conditions'
p2653
I01
sS'product'
p2654
I01
sS'terms'
p2655
I01
sS'information'
p2656
I01
sS'may'
p2657
I01
sS'de'
p2658
I01
sS'qual'
p2659
I01
sS'les'
p2660
I01
sS'user'
p2661
I01
sS'services'
p2662
I01
sS'must'
p2663
I01
sS'license'
p2664
I01
sS'rights'
p2665
I01
sS'codeode'
p2666
I01
sg1303
I01
sS'ou'
p2667
I01
sS'microsoft'
p2668
I01
sS'software'
p2669
I01
sg32
tp2670
a((dp2671
S'jambotech'
p2672
I01
sS'services'
p2673
I01
sS'including'
p2674
I01
sS'parties'
p2675
I01
sS'use'
p2676
I01
sS'service'
p2677
I01
sS'equipment'
p2678
I01
sS'due'
p2679
I01
sS'content'
p2680
I01
sS'application'
p2681
I01
sS'charge'
p2682
I01
sS'conditions'
p2683
I01
sS'terms'
p2684
I01
sS'shall'
p2685
I01
sS'may'
p2686
I01
sS'company'
p2687
I01
sS'upon'
p2688
I01
sS'agreement'
p2689
I01
sS'date'
p2690
I01
sS'law'
p2691
I01
sS'payment'
p2692
I01
sS'customer'
p2693
I01
sS'hereunder'
p2694
I01
sS'effective'
p2695
I01
sS'charges'
p2696
I01
sS'credit'
p2697
I01
sS'without'
p2698
I01
sS'products'
p2699
I01
sS'time'
p2700
I01
sS'minutes'
p2701
I01
sg32
tp2702
a((dp2703
S'warranty'
p2704
I01
sS'via'
p2705
I01
sS'distribute'
p2706
I01
sS'one'
p2707
I01
sS'simply'
p2708
I01
sS'disk'
p2709
I01
sS'electronic'
p2710
I01
sS'george'
p2711
I01
sS'previous'
p2712
I01
sS'anyone'
p2713
I01
sS'use'
p2714
I01
sS'unmodified'
p2715
I01
sS'acceptance'
p2716
I01
sS'copies'
p2717
I01
sS'distributing'
p2718
I01
sS'written'
p2719
I01
sS'version'
p2720
I01
sS'conditions'
p2721
I01
sS'warranties'
p2722
I01
sS'permission'
p2723
I01
sS'agreement'
p2724
I01
sS'particular'
p2725
I01
sS'spamdel'
p2726
I01
sS'license'
p2727
I01
sS'documentation'
p2728
I01
sS'without'
p2729
I01
sS'lose'
p2730
I01
sS'software'
p2731
I01
sS'original'
p2732
I01
sS'otherwise'
p2733
I01
sg32
tp2734
a((dp2735
S'exclusive'
p2736
I01
sS'limited'
p2737
I01
sS'construed'
p2738
I01
sS'herein'
p2739
I01
sS'interpreted'
p2740
I01
sS'constitute'
p2741
I01
sS'including'
p2742
I01
sS'parties'
p2743
I01
sS'freeware'
p2744
I01
sS'beyond'
p2745
I01
sS'subject'
p2746
I01
sS'use'
p2747
I01
sS'copyright'
p2748
I01
sS'written'
p2749
I01
sS'scope'
p2750
I01
sS'conditions'
p2751
I01
sS'terms'
p2752
I01
sS'shall'
p2753
I01
sS'may'
p2754
I01
sS'upon'
p2755
I01
sS'agreement'
p2756
I01
sS'licence'
p2757
I01
sS'technologies'
p2758
I01
sS'copy'
p2759
I01
sS'hereunder'
p2760
I01
sS'technoloigies'
p2761
I01
sS'rights'
p2762
I01
sS'smc'
p2763
I01
sS'without'
p2764
I01
sS'software'
p2765
I01
sg32
tp2766
a((dp2767
S'warranty'
p2768
I01
sS'proprietary'
p2769
I01
sS'number'
p2770
I01
sS'including'
p2771
I01
sS'information'
p2772
I01
sS'use'
p2773
I01
sS'law'
p2774
I01
sS'copies'
p2775
I01
sg490
I01
sg492
I01
sS'party'
p2776
I01
sS'product'
p2777
I01
sS'terms'
p2778
I01
sS'shall'
p2779
I01
sS'may'
p2780
I01
sS'agreement'
p2781
I01
sS'otherwise'
p2782
I01
sS'extent'
p2783
I01
sS'provided'
p2784
I01
sS'copy'
p2785
I01
sS'limitation'
p2786
I01
sS'license'
p2787
I01
sS'rights'
p2788
I01
sS'documentation'
p2789
I01
sS'applicable'
p2790
I01
sS'without'
p2791
I01
sS'client'
p2792
I01
sS'licensor'
p2793
I01
sS'agree'
p2794
I01
sS'software'
p2795
I01
sg32
tp2796
a((dp2797
S'warranty'
p2798
I01
sS'limited'
p2799
I01
sS'eula'
p2800
I01
sS'one'
p2801
I01
sS'services'
p2802
I01
sS'including'
p2803
I01
sS'apply'
p2804
I01
sS'provided'
p2805
I01
sS'use'
p2806
I01
sS'law'
p2807
I01
sS'media'
p2808
I01
sS'support'
p2809
I01
sS'except'
p2810
I01
sS'damages'
p2811
I01
sS'mailshell'
p2812
I01
sS'product'
p2813
I01
sS'elements'
p2814
I01
sS'terms'
p2815
I01
sS'may'
p2816
I01
sS'remedy'
p2817
I01
sS'user'
p2818
I01
sS'device'
p2819
I01
sS'copy'
p2820
I01
sS'subscription'
p2821
I01
sS'license'
p2822
I01
sS'rights'
p2823
I01
sS'applicable'
p2824
I01
sS'materials'
p2825
I01
sS'install'
p2826
I01
sS'software'
p2827
I01
sg32
tp2828
a((dp2829
S'limited'
p2830
I01
sS'eula'
p2831
I01
sS'spyware'
p2832
I01
sS'one'
p2833
I01
sS'computer'
p2834
I01
sS'export'
p2835
I01
sS'provided'
p2836
I01
sS'use'
p2837
I01
sS'end'
p2838
I01
sS'transfer'
p2839
I01
sS'support'
p2840
I01
sS'product'
p2841
I01
sS'terms'
p2842
I01
sS'isss'
p2843
I01
sS'shall'
p2844
I01
sS'may'
p2845
I01
sS'agreement'
p2846
I01
sS'liability'
p2847
I01
sS'applications'
p2848
I01
sS'user'
p2849
I01
sS'services'
p2850
I01
sS'licensed'
p2851
I01
sS'license'
p2852
I01
sS'rights'
p2853
I01
sS'applicable'
p2854
I01
sS'materials'
p2855
I01
sS'install'
p2856
I01
sS'including'
p2857
I01
sS'agree'
p2858
I01
sS'software'
p2859
I01
sg32
tp2860
a((dp2861
S'warranty'
p2862
I01
sS'limited'
p2863
I01
sS'underdog'
p2864
I01
sS'including'
p2865
I01
sS'freeware'
p2866
I01
sS'use'
p2867
I01
sS'copyright'
p2868
I01
sS'profit'
p2869
I01
sS'distributing'
p2870
I01
sS'read'
p2871
I01
sS'written'
p2872
I01
sS'version'
p2873
I01
sS'damages'
p2874
I01
sS'conditions'
p2875
I01
sS'warranties'
p2876
I01
sS'non'
p2877
I01
sS'terms'
p2878
I01
sS'may'
p2879
I01
sS'agreement'
p2880
I01
sS'liability'
p2881
I01
sS'applications'
p2882
I01
sS'using'
p2883
I01
sS'license'
p2884
I01
sS'whether'
p2885
I01
sS'underdogapplications'
p2886
I01
sS'ebay'
p2887
I01
sS'quickyfind'
p2888
I01
sS'software'
p2889
I01
sS'agree'
p2890
I01
sS'otherwise'
p2891
I01
sg32
tp2892
a((dp2893
S'jurisdiction'
p2894
I01
sS'except'
p2895
I01
sS'individual'
p2896
I01
sS'event'
p2897
I01
sS'use'
p2898
I01
sS'exclusion'
p2899
I01
sS'copyright'
p2900
I01
sS'title'
p2901
I01
sS'means'
p2902
I01
sS'system'
p2903
I01
sS'damages'
p2904
I01
sS'consequential'
p2905
I01
sS'spamcc'
p2906
I01
sS'warranties'
p2907
I01
sS'carolina'
p2908
I01
sS'terms'
p2909
I01
sS'shall'
p2910
I01
sS'may'
p2911
I01
sS'agreement'
p2912
I01
sS'liability'
p2913
I01
sS'ownership'
p2914
I01
sS'entire'
p2915
I01
sS'purchase'
p2916
I01
sS'license'
p2917
I01
sS'rights'
p2918
I01
sS'incidental'
p2919
I01
sS'implied'
p2920
I01
sS'agree'
p2921
I01
sS'south'
p2922
I01
sS'software'
p2923
I01
sg32
tp2924
a((dp2925
S'warranty'
p2926
I01
sS'limited'
p2927
I01
sS'eula'
p2928
I01
sS'including'
p2929
I01
sS'solutions'
p2930
I01
sS'pty'
p2931
I01
sS'provided'
p2932
I01
sS'use'
p2933
I01
sS'law'
p2934
I01
sS'provide'
p2935
I01
sS'support'
p2936
I01
sS'except'
p2937
I01
sS'damages'
p2938
I01
sS'consequential'
p2939
I01
sS'sirius'
p2940
I01
sS'product'
p2941
I01
sS'terms'
p2942
I01
sS'may'
p2943
I01
sS'remedy'
p2944
I01
sS'extent'
p2945
I01
sS'services'
p2946
I01
sS'copy'
p2947
I01
sS'limitation'
p2948
I01
sS'license'
p2949
I01
sS'rights'
p2950
I01
sS'applicable'
p2951
I01
sS'materials'
p2952
I01
sS'ltd'
p2953
I01
sS'property'
p2954
I01
sS'software'
p2955
I01
sg32
tp2956
a((dp2957
S'LICENSE'
p2958
I01
sS'THAT'
p2959
I01
sS'obligations'
p2960
I01
sS'Internet'
p2961
I01
sS'Usage'
p2962
I01
sS'TERMS'
p2963
I01
sg90
I01
sS'to'
p2964
I01
sg494
I01
sS'subscription'
p2965
I01
sS'CONDITIONS'
p2966
I01
sS'archival'
p2967
I01
sS'updated'
p2968
I01
sS'downloading'
p2969
I01
sS'inc..'
p2970
I01
sS'not'
p2971
I01
sS'THE'
p2972
I01
sS'Warranty'
p2973
I01
sS'ON'
p2974
I01
sS'THIS'
p2975
I01
sS'follows'
p2976
I01
sS'AGREE'
p2977
I01
sS'OF'
p2978
I01
sS'soft'
p2979
I01
sS'OR'
p2980
I01
sS'are'
p2981
I01
sS'year'
p2982
I01
sS'provided'
p2983
I01
sS'adds'
p2984
I01
sS'network'
p2985
I01
sS'for'
p2986
I01
sS'sites'
p2987
I01
sS'content'
p2988
I01
sg491
I01
sg81
I01
sS'e-z'
p2989
I01
sS'by'
p2990
I01
sS'AND'
p2991
I01
sS'license'
p2992
I01
sS'of'
p2993
I01
sS'BUTTON'
p2994
I01
sS'AGREEMENT'
p2995
I01
sS'products'
p2996
I01
sS'or'
p2997
I01
sS'period'
p2998
I01
sS'Limited'
p2999
I01
sS'respect'
p3000
I01
sS'OTHERWISE'
p3001
I01
sS'use'
p3002
I01
sS'C.'
p3003
I01
sS'NO'
p3004
I01
sg91
I01
sg492
I01
sS'authorized'
p3005
I01
sg941
I01
sS'Data'
p3006
I01
sS'Updates'
p3007
I01
sS'``'
p3008
I01
sS'accompany'
p3009
I01
sS'Converter'
p3010
I01
sS'that'
p3011
I01
sS'iPod'
p3012
I01
sS'copy'
p3013
I01
sS'with'
p3014
I01
sS'Software'
p3015
I01
sS'Content'
p3016
I01
sS'rights'
p3017
I01
sS'this'
p3018
I01
sS'will'
p3019
I01
sS'Video'
p3020
I01
sS'Consent'
p3021
I01
sS'Your'
p3022
I01
sS'Damages'
p3023
I01
sS'DO'
p3024
I01
sS'is'
p3025
I01
sS'purposes'
p3026
I01
sS"''"
p3027
I01
sS'manner'
p3028
I01
sS'in'
p3029
I01
sS'You'
p3030
I01
sS'any'
p3031
I01
sS'utilize'
p3032
I01
sS'A.'
p3033
I01
sg490
I01
sS'TO'
p3034
I01
sg493
I01
sS'which'
p3035
I01
sS'SOFTWARE'
p3036
I01
sS'License'
p3037
I01
sS'may'
p3038
I01
sS'IS'
p3039
I01
sS'LEGAL'
p3040
I01
sS'AS'
p3041
I01
sS'printed'
p3042
I01
sS'YOU'
p3043
I01
sS'Disclaimer'
p3044
I01
sg100
I01
sS'purchase'
p3045
I01
sS'documentation'
p3046
I01
sS'the'
p3047
I01
sg32
tp3048
a((dp3049
S'including'
p3050
I01
sS'registration'
p3051
I01
sS'http'
p3052
I01
sS'inc'
p3053
I01
sS'information'
p3054
I01
sS'use'
p3055
I01
sS'service'
p3056
I01
sS'make'
p3057
I01
sS'access'
p3058
I01
sg493
I01
sS'call'
p3059
I01
sS'content'
p3060
I01
sS'available'
p3061
I01
sS'terms'
p3062
I01
sS'prepaid'
p3063
I01
sS'provided'
p3064
I01
sS'may'
p3065
I01
sS'yc'
p3066
I01
sS'yahoo'
p3067
I01
sS'phone'
p3068
I01
sS'understand'
p3069
I01
sS'services'
p3070
I01
sS'data'
p3071
I01
sS'account'
p3072
I01
sS'usa'
p3073
I01
sS'time'
p3074
I01
sS'voice'
p3075
I01
sS'com'
p3076
I01
sS'agree'
p3077
I01
sS'otherwise'
p3078
I01
sg32
tp3079
a((dp3080
S'photo'
p3081
I01
sS'distribute'
p3082
I01
sS'entity'
p3083
I01
sS'export'
p3084
I01
sS'event'
p3085
I01
sS'use'
p3086
I01
sS'united'
p3087
I01
sS'copyright'
p3088
I01
sS'title'
p3089
I01
sS'personal'
p3090
I01
sS'iii'
p3091
I01
sS'state'
p3092
I01
sS'written'
p3093
I01
sS'damages'
p3094
I01
sS'consequential'
p3095
I01
sS'terms'
p3096
I01
sS'shall'
p3097
I01
sS'may'
p3098
I01
sS'agreement'
p3099
I01
sS'california'
p3100
I01
sS'monkeymen'
p3101
I01
sS'behalf'
p3102
I01
sS'license'
p3103
I01
sS'rights'
p3104
I01
sS'whether'
p3105
I01
sS'without'
p3106
I01
sS'liable'
p3107
I01
sS'termination'
p3108
I01
sS'agree'
p3109
I01
sS'software'
p3110
I01
sg32
tp3111
a((dp3112
S'warranty'
p3113
I01
sS'decompile'
p3114
I01
sS'authorised'
p3115
I01
sS'list'
p3116
I01
sS'distribute'
p3117
I01
sS'terminate'
p3118
I01
sS'purposes'
p3119
I01
sS'intellectual'
p3120
I01
sS'licensed'
p3121
I01
sS'treaties'
p3122
I01
sS'manager'
p3123
I01
sS'grants'
p3124
I01
sS'held'
p3125
I01
sS'rent'
p3126
I01
sS'fail'
p3127
I01
sS'event'
p3128
I01
sS'use'
p3129
I01
sS'copyright'
p3130
I01
sS'copies'
p3131
I01
sS'email'
p3132
I01
sS'may'
p3133
I01
sS'express'
p3134
I01
sS'agreement'
p3135
I01
sS'license'
p3136
I01
sS'rights'
p3137
I01
sS'well'
p3138
I01
sS'alias'
p3139
I01
sS'without'
p3140
I01
sS'software'
p3141
I01
sS'laws'
p3142
I01
sg32
tp3143
a((dp3144
S'and'
p3145
I01
sS'Web'
p3146
I01
sS'organize'
p3147
I01
sS'useful'
p3148
I01
sS'features'
p3149
I01
sS'is'
p3150
I01
sS'Memory'
p3151
I01
sS'powerful'
p3152
I01
sS'System'
p3153
I01
sS'an'
p3154
I01
sS'wysiwyg'
p3155
I01
sS'Recommended'
p3156
I01
sS'95/98/2000/NT'
p3157
I01
sS'in'
p3158
I01
sS'Requirements'
p3159
I01
sS'32'
p3160
I01
sS'your'
p3161
I01
sS'Higher'
p3162
I01
sS'5.0'
p3163
I01
sS'web'
p3164
I01
sS'from'
p3165
I01
sS'Explorer'
p3166
I01
sS'for'
p3167
I01
sg88
I01
sg89
I01
sS'-'
p3168
I01
sg90
I01
sg91
I01
sS'to'
p3169
I01
sg494
I01
sS'easy'
p3170
I01
sS'offline'
p3171
I01
sS'way'
p3172
I01
sS'Windows'
p3173
I01
sS'Processor'
p3174
I01
sS'browsing'
p3175
I01
sS'downloaded'
p3176
I01
sS'75'
p3177
I01
sS'Internet'
p3178
I01
sS'pages'
p3179
I01
sg100
I01
sS'Microsoft'
p3180
I01
sS'would'
p3181
I01
sS'MB'
p3182
I01
sS'--'
p3183
I01
sS'Overview'
p3184
I01
sS'16'
p3185
I01
sS'later'
p3186
I01
sS'Pentium'
p3187
I01
sS'MHz'
p3188
I01
sS'eNotebook'
p3189
I01
sS'the'
p3190
I01
sS'or'
p3191
I01
sg32
tp3192
a((dp3193
S'right'
p3194
I01
sS'parties'
p3195
I01
sS'cost'
p3196
I01
sS'including'
p3197
I01
sS'year'
p3198
I01
sS'issues'
p3199
I01
sS'provided'
p3200
I01
sS'publication'
p3201
I01
sS'copyright'
p3202
I01
sS'content'
p3203
I01
sS'written'
p3204
I01
sS'editor'
p3205
I01
sS'online'
p3206
I01
sS'print'
p3207
I01
sS'party'
p3208
I01
sS'issue'
p3209
I01
sS'either'
p3210
I01
sS'notice'
p3211
I01
sS'shall'
p3212
I01
sS'may'
p3213
I01
sS'journal'
p3214
I01
sS'agreement'
p3215
I01
sS'association'
p3216
I01
sS'publisher'
p3217
I01
sg348
I01
sg380
I01
sS'rights'
p3218
I01
sS'advertising'
p3219
I01
sS'editorial'
p3220
I01
sS'otherwise'
p3221
I01
sVneg
p3222
tp3223
a((dp3224
S'collaborating'
p3225
I01
sS'parties'
p3226
I01
sS'patient'
p3227
I01
sS'certificate'
p3228
I01
sS'review'
p3229
I01
sS'agency'
p3230
I01
sS'state'
p3231
I01
sS'consultation'
p3232
I01
sS'health'
p3233
I01
sS'np'
p3234
I01
sS'new'
p3235
I01
sS'rn'
p3236
I01
sS'disagreements'
p3237
I01
sS'practitioner'
p3238
I01
sS'collaborative'
p3239
I01
sS'shall'
p3240
I01
sS'may'
p3241
I01
sS'registered'
p3242
I01
sS'practice'
p3243
I01
sS'agreement'
p3244
I01
sS'specialty'
p3245
I01
sS'york'
p3246
I01
sS'scope'
p3247
I01
sS'date'
p3248
I01
sS'nurse'
p3249
I01
sS'protocols'
p3250
I01
sS'physician'
p3251
I01
sS'name'
p3252
I01
sS'license'
p3253
I01
sS'identified'
p3254
I01
sg3222
tp3255
a((dp3256
S'edc'
p3257
I01
sS'set'
p3258
I01
sS'confidentiality'
p3259
I01
sS'date'
p3260
I01
sS'including'
p3261
I01
sS'information'
p3262
I01
sS'privacy'
p3263
I01
sS'personal'
p3264
I01
sS'schedule'
p3265
I01
sg490
I01
sS'written'
p3266
I01
sg492
I01
sS'supplier'
p3267
I01
sS'party'
p3268
I01
sS'confidential'
p3269
I01
sS'shall'
p3270
I01
sS'may'
p3271
I01
sS'act'
p3272
I01
sS'agreement'
p3273
I01
sS'deliverables'
p3274
I01
sS'representative'
p3275
I01
sS'services'
p3276
I01
sS'law'
p3277
I01
sS'recipient'
p3278
I01
sS'customer'
p3279
I01
sg348
I01
sg380
I01
sS'rights'
p3280
I01
sS'applicable'
p3281
I01
sS'time'
p3282
I01
sg3222
tp3283
a((dp3284
S'within'
p3285
I01
sS'year'
p3286
I01
sS'agent'
p3287
I01
sS'month'
p3288
I01
sS'held'
p3289
I01
sS'rent'
p3290
I01
sS'fees'
p3291
I01
sS'court'
p3292
I01
sS'pay'
p3293
I01
sS'due'
p3294
I01
sS'premises'
p3295
I01
sS'written'
p3296
I01
sS'condition'
p3297
I01
sS'lease'
p3298
I01
sS'notice'
p3299
I01
sS'shall'
p3300
I01
sS'may'
p3301
I01
sS'agreement'
p3302
I01
sS'state'
p3303
I01
sS'date'
p3304
I01
sS'law'
p3305
I01
sS'tenant'
p3306
I01
sS'must'
p3307
I01
sS'made'
p3308
I01
sS'room'
p3309
I01
sS'days'
p3310
I01
sS'deposit'
p3311
I01
sS'landlord'
p3312
I01
sS'security'
p3313
I01
sS'property'
p3314
I01
sg3222
tp3315
a((dp3316
S'office'
p3317
I01
sS'resident'
p3318
I01
sS'som'
p3319
I01
sS'fellow'
p3320
I01
sS'including'
p3321
I01
sS'patient'
p3322
I01
sS'employment'
p3323
I01
sS'information'
p3324
I01
sS'requirements'
p3325
I01
sS'fellows'
p3326
I01
sS'fellowship'
p3327
I01
sS'program'
p3328
I01
sS'policy'
p3329
I01
sS'evaluation'
p3330
I01
sS'activities'
p3331
I01
sS'appointment'
p3332
I01
sS'may'
p3333
I01
sS'curriculum'
p3334
I01
sS'uconn'
p3335
I01
sS'services'
p3336
I01
sS'procedures'
p3337
I01
sS'care'
p3338
I01
sS'training'
p3339
I01
sS'medical'
p3340
I01
sS'required'
p3341
I01
sS'manual'
p3342
I01
sS'leave'
p3343
I01
sS'residency'
p3344
I01
sS'policies'
p3345
I01
sS'residents'
p3346
I01
sg3222
tp3347
a((dp3348
S'right'
p3349
I01
sS'lessor'
p3350
I01
sS'parties'
p3351
I01
sS'roads'
p3352
I01
sS'premises'
p3353
I01
sS'agrees'
p3354
I01
sS'timber'
p3355
I01
sS'use'
p3356
I01
sS'said'
p3357
I01
sS'hunting'
p3358
I01
sS'state'
p3359
I01
sS'fire'
p3360
I01
sS'written'
p3361
I01
sS'damages'
p3362
I01
sS'lease'
p3363
I01
sS'shall'
p3364
I01
sS'may'
p3365
I01
sS'upon'
p3366
I01
sS'leased'
p3367
I01
sS'agreement'
p3368
I01
sS'trees'
p3369
I01
sS'regulations'
p3370
I01
sS'term'
p3371
I01
sS'land'
p3372
I01
sS'rights'
p3373
I01
sS'rules'
p3374
I01
sS'lessee'
p3375
I01
sS'prior'
p3376
I01
sS'time'
p3377
I01
sS'invitees'
p3378
I01
sg3222
tp3379
a((dp3380
S'right'
p3381
I01
sS'thereon'
p3382
I01
sS'violation'
p3383
I01
sS'share'
p3384
I01
sS'including'
p3385
I01
sS'rent'
p3386
I01
sS'another'
p3387
I01
sS'hereto'
p3388
I01
sS'agrees'
p3389
I01
sS'said'
p3390
I01
sS'20'
p3391
I01
sS'pet'
p3392
I01
sS'pay'
p3393
I01
sS'responsible'
p3394
I01
sg491
I01
sg494
I01
sS'lease'
p3395
I01
sS'shall'
p3396
I01
sS'premises'
p3397
I01
sS'agreement'
p3398
I01
sS'roommate'
p3399
I01
sS'date'
p3400
I01
sS'copy'
p3401
I01
sS'charges'
p3402
I01
sS'follows'
p3403
I01
sS'required'
p3404
I01
sS'without'
p3405
I01
sS'roommates'
p3406
I01
sS'landlord'
p3407
I01
sS'solely'
p3408
I01
sg3222
tp3409
a((dp3410
S'relevant'
p3411
I01
sS'tax'
p3412
I01
sS'ii'
p3413
I01
sS'currency'
p3414
I01
sS'specified'
p3415
I01
sS'respect'
p3416
I01
sS'event'
p3417
I01
sS'support'
p3418
I01
sS'means'
p3419
I01
sg492
I01
sg495
I01
sS'party'
p3420
I01
sS'document'
p3421
I01
sS'affected'
p3422
I01
sS'transactions'
p3423
I01
sS'may'
p3424
I01
sS'agreement'
p3425
I01
sS'early'
p3426
I01
sg380
I01
sS'date'
p3427
I01
sS'law'
p3428
I01
sS'payment'
p3429
I01
sS'transaction'
p3430
I01
sg26
I01
sS'default'
p3431
I01
sS'applicable'
p3432
I01
sS'credit'
p3433
I01
sS'amount'
p3434
I01
sS'termination'
p3435
I01
sS'section'
p3436
I01
sg3222
tp3437
a((dp3438
S'purchaser'
p3439
I01
sS'copies'
p3440
I01
sS'agreed'
p3441
I01
sS'pursuant'
p3442
I01
sS'one'
p3443
I01
sS'furnishing'
p3444
I01
sS'parties'
p3445
I01
sS'writing'
p3446
I01
sS'hereinafter'
p3447
I01
sS'insurance'
p3448
I01
sS'described'
p3449
I01
sS'additional'
p3450
I01
sS'working'
p3451
I01
sS'workers'
p3452
I01
sS'acceptance'
p3453
I01
sS'rev'
p3454
I01
sS'compensation'
p3455
I01
sS'contractor'
p3456
I01
sS'location'
p3457
I01
sS'independent'
p3458
I01
sS'agrees'
p3459
I01
sS'agreement'
p3460
I01
sS'letter'
p3461
I01
sS'workmanlike'
p3462
I01
sS'services'
p3463
I01
sS'employees'
p3464
I01
sS'work'
p3465
I01
sS'connection'
p3466
I01
sS'called'
p3467
I01
sS'performed'
p3468
I01
sg3222
tp3469
a((dp3470
S'co'
p3471
I01
sS'violation'
p3472
I01
sS'terminate'
p3473
I01
sS'period'
p3474
I01
sS'agent'
p3475
I01
sS'performance'
p3476
I01
sS'parties'
p3477
I01
sS'distributor'
p3478
I01
sS'agrees'
p3479
I01
sS'arbitration'
p3480
I01
sS'provided'
p3481
I01
sS'provisions'
p3482
I01
sS'contracts'
p3483
I01
sS'written'
p3484
I01
sS'conduct'
p3485
I01
sS'breach'
p3486
I01
sS'maryland'
p3487
I01
sS'duties'
p3488
I01
sS'notice'
p3489
I01
sS'business'
p3490
I01
sS'shall'
p3491
I01
sS'may'
p3492
I01
sS'company'
p3493
I01
sS'upon'
p3494
I01
sS'agreement'
p3495
I01
sS'party'
p3496
I01
sS'work'
p3497
I01
sS'products'
p3498
I01
sS'either'
p3499
I01
sS'termination'
p3500
I01
sg3222
tp3501
a((dp3502
S'coach'
p3503
I01
sS'commitment'
p3504
I01
sS'process'
p3505
I01
sS'number'
p3506
I01
sS'month'
p3507
I01
sS'session'
p3508
I01
sS'fees'
p3509
I01
sS'agrees'
p3510
I01
sS'provided'
p3511
I01
sS'monthly'
p3512
I01
sg491
I01
sS'coaching'
p3513
I01
sS'progress'
p3514
I01
sS'scheduled'
p3515
I01
sS'appointment'
p3516
I01
sS'relationship'
p3517
I01
sS'sessions'
p3518
I01
sS'may'
p3519
I01
sS'conversations'
p3520
I01
sS'agreement'
p3521
I01
sS'telephone'
p3522
I01
sS'minute'
p3523
I01
sS'made'
p3524
I01
sS'calls'
p3525
I01
sS'30'
p3526
I01
sS'information'
p3527
I01
sS'client'
p3528
I01
sS'personal'
p3529
I01
sS'time'
p3530
I01
sS'agree'
p3531
I01
sg3222
tp3532
a((dp3533
S'applicable'
p3534
I01
sS'including'
p3535
I01
sS'insurance'
p3536
I01
sS'information'
p3537
I01
sS'group'
p3538
I01
sS'alcohol'
p3539
I01
sS'contractor'
p3540
I01
sS'policy'
p3541
I01
sS'business'
p3542
I01
sS'shall'
p3543
I01
sS'may'
p3544
I01
sS'company'
p3545
I01
sS'agreement'
p3546
I01
sS'liability'
p3547
I01
sS'employee'
p3548
I01
sS'coverage'
p3549
I01
sS'contractors'
p3550
I01
sS'services'
p3551
I01
sS'eog'
p3552
I01
sg348
I01
sg26
I01
sS'employees'
p3553
I01
sS'required'
p3554
I01
sg1303
I01
sS'n'
p3555
I01
sg697
I01
sg760
I01
sS'provided'
p3556
I01
sS'property'
p3557
I01
sS'laws'
p3558
I01
sg3222
tp3559
a((dp3560
S'negligence'
p3561
I01
sS'agreed'
p3562
I01
sS'assigned'
p3563
I01
sS'understood'
p3564
I01
sS'donated'
p3565
I01
sS'parties'
p3566
I01
sS'apply'
p3567
I01
sS'agrees'
p3568
I01
sS'said'
p3569
I01
sS'voluntary'
p3570
I01
sS'service'
p3571
I01
sS'employee'
p3572
I01
sS'scope'
p3573
I01
sS'donate'
p3574
I01
sS'occurs'
p3575
I01
sS'shall'
p3576
I01
sS'may'
p3577
I01
sS'rise'
p3578
I01
sS'agreement'
p3579
I01
sS'liability'
p3580
I01
sS'part'
p3581
I01
sS'understand'
p3582
I01
sS'date'
p3583
I01
sS'volunteer'
p3584
I01
sS'hours'
p3585
I01
sS'name'
p3586
I01
sS'charity'
p3587
I01
sS'services'
p3588
I01
sS'signature'
p3589
I01
sS'referred'
p3590
I01
sg3222
tp3591
a((dp3592
S'right'
p3593
I01
sS'xyz'
p3594
I01
sS'describe'
p3595
I01
sS'library'
p3596
I01
sS'including'
p3597
I01
sS'contractor'
p3598
I01
sS'use'
p3599
I01
sS'described'
p3600
I01
sS'copyright'
p3601
I01
sS'title'
p3602
I01
sS'writing'
p3603
I01
sS'regents'
p3604
I01
sg493
I01
sS'acceptable'
p3605
I01
sS'shall'
p3606
I01
sS'michigan'
p3607
I01
sS'agreement'
p3608
I01
sS'letter'
p3609
I01
sS'date'
p3610
I01
sS'hold'
p3611
I01
sS'kindly'
p3612
I01
sS'hire'
p3613
I01
sS'made'
p3614
I01
sS'name'
p3615
I01
sS'rights'
p3616
I01
sS'considered'
p3617
I01
sS'university'
p3618
I01
sS'work'
p3619
I01
sS'property'
p3620
I01
sS'agree'
p3621
I01
sg3222
tp3622
a((dp3623
S'disclosure'
p3624
I01
sS'proprietary'
p3625
I01
sS'furnished'
p3626
I01
sS'obligations'
p3627
I01
sS'disclosing'
p3628
I01
sS'parties'
p3629
I01
sS'agrees'
p3630
I01
sS'subject'
p3631
I01
sS'information'
p3632
I01
sS'use'
p3633
I01
sS'available'
p3634
I01
sS'except'
p3635
I01
sS'writing'
p3636
I01
sS'disclosed'
p3637
I01
sS'party'
p3638
I01
sS'receiving'
p3639
I01
sS'either'
p3640
I01
sS'disclose'
p3641
I01
sS'confidential'
p3642
I01
sS'shall'
p3643
I01
sS'may'
p3644
I01
sS'agreement'
p3645
I01
sS'promptly'
p3646
I01
sS'purpose'
p3647
I01
sS'hereunder'
p3648
I01
sS'regarding'
p3649
I01
sS'name'
p3650
I01
sS'matter'
p3651
I01
sS'relief'
p3652
I01
sS'enforce'
p3653
I01
sg3222
tp3654
a((dp3655
S'financial'
p3656
I01
sS'sign'
p3657
I01
sS'including'
p3658
I01
sS'total'
p3659
I01
sS'best'
p3660
I01
sS'knowledge'
p3661
I01
sS'pay'
p3662
I01
sS'seller'
p3663
I01
sS'may'
p3664
I01
sS'inventory'
p3665
I01
sS'price'
p3666
I01
sS'warranties'
p3667
I01
sS'attachment'
p3668
I01
sS'good'
p3669
I01
sS'business'
p3670
I01
sS'premises'
p3671
I01
sS'sold'
p3672
I01
sS'agreement'
p3673
I01
sS'liability'
p3674
I01
sS'buyer'
p3675
I01
sS'representations'
p3676
I01
sS'security'
p3677
I01
sg348
I01
sS'goods'
p3678
I01
sS'assets'
p3679
I01
sS'sale'
p3680
I01
sS'person'
p3681
I01
sS'deposit'
p3682
I01
sS'closing'
p3683
I01
sS'laws'
p3684
I01
sg3222
tp3685
a((dp3686
S'trainer'
p3687
I01
sS'considerations'
p3688
I01
sS'equally'
p3689
I01
sS'financial'
p3690
I01
sS'help'
p3691
I01
sS'session'
p3692
I01
sS'including'
p3693
I01
sS'investment'
p3694
I01
sS'participant'
p3695
I01
sS'personal'
p3696
I01
sg491
I01
sS'program'
p3697
I01
sS'supervised'
p3698
I01
sS'conditions'
p3699
I01
sS'exercise'
p3700
I01
sS'sessions'
p3701
I01
sS'time'
p3702
I01
sS'however'
p3703
I01
sS'unused'
p3704
I01
sS'date'
p3705
I01
sS'training'
p3706
I01
sS'made'
p3707
I01
sS'unsupervised'
p3708
I01
sS'days'
p3709
I01
sS'contract'
p3710
I01
sS'nsca'
p3711
I01
sS'responsibility'
p3712
I01
sS'risks'
p3713
I01
sS'signature'
p3714
I01
sS'agree'
p3715
I01
sg3222
tp3716
a((dp3717
S'scrip'
p3718
I01
sS'fair'
p3719
I01
sS'issued'
p3720
I01
sS'association'
p3721
I01
sS'shareholders'
p3722
I01
sS'20'
p3723
I01
sS'merger'
p3724
I01
sS'section'
p3725
I01
sS'shares'
p3726
I01
sS'board'
p3727
I01
sS'capital'
p3728
I01
sS'certificates'
p3729
I01
sS'stock'
p3730
I01
sS'shall'
p3731
I01
sS'may'
p3732
I01
sS'acceptable'
p3733
I01
sS'fractional'
p3734
I01
sS'agreement'
p3735
I01
sS'date'
p3736
I01
sS'bank'
p3737
I01
sS'made'
p3738
I01
sS'assets'
p3739
I01
sS'effective'
p3740
I01
sS'cash'
p3741
I01
sS'value'
p3742
I01
sS'directors'
p3743
I01
sS'common'
p3744
I01
sS'time'
p3745
I01
sS'banks'
p3746
I01
sS'creditors'
p3747
I01
sg3222
tp3748
a((dp3749
S'199'
p3750
I01
sS'parties'
p3751
I01
sS'tax'
p3752
I01
sS'herein'
p3753
I01
sS'one'
p3754
I01
sS'year'
p3755
I01
sS'settlement'
p3756
I01
sS'children'
p3757
I01
sS'pay'
p3758
I01
sS'support'
p3759
I01
sS'event'
p3760
I01
sS'also'
p3761
I01
sS'interest'
p3762
I01
sS'income'
p3763
I01
sS'party'
p3764
I01
sS'parent'
p3765
I01
sS'shall'
p3766
I01
sS'may'
p3767
I01
sS'upon'
p3768
I01
sS'agreement'
p3769
I01
sS'child'
p3770
I01
sS'marital'
p3771
I01
sS'payment'
p3772
I01
sS'account'
p3773
I01
sS'benefits'
p3774
I01
sS'wife'
p3775
I01
sS'time'
p3776
I01
sS'property'
p3777
I01
sS'agree'
p3778
I01
sS'husband'
p3779
I01
sg3222
tp3780
a((dp3781
S'right'
p3782
I01
sS'proprietary'
p3783
I01
sS'taste'
p3784
I01
sS'ii'
p3785
I01
sS'including'
p3786
I01
sS'philly'
p3787
I01
sS'use'
p3788
I01
sS'franchisor'
p3789
I01
sS'section'
p3790
I01
sS'means'
p3791
I01
sS'system'
p3792
I01
sg491
I01
sg492
I01
sS'marks'
p3793
I01
sS'party'
p3794
I01
sS'business'
p3795
I01
sS'shall'
p3796
I01
sS'may'
p3797
I01
sS'agreement'
p3798
I01
sS'affiliates'
p3799
I01
sS'law'
p3800
I01
sS'franchisee'
p3801
I01
sS'must'
p3802
I01
sg380
I01
sS'restaurant'
p3803
I01
sS'applicable'
p3804
I01
sS'standards'
p3805
I01
sS'termination'
p3806
I01
sS'property'
p3807
I01
sS'restaurants'
p3808
I01
sg3222
tp3809
a((dp3810
S'domestic'
p3811
I01
sS'employment'
p3812
I01
sS'end'
p3813
I01
sS'etc'
p3814
I01
sS'pay'
p3815
I01
sS'workers'
p3816
I01
sS'per'
p3817
I01
sS'employer'
p3818
I01
sS'start'
p3819
I01
sS'weeks'
p3820
I01
sS'pm'
p3821
I01
sS'week'
p3822
I01
sS'notice'
p3823
I01
sS'description'
p3824
I01
sS'worker'
p3825
I01
sS'agreement'
p3826
I01
sS'paid'
p3827
I01
sS'hours'
p3828
I01
sS'date'
p3829
I01
sS'day'
p3830
I01
sS'specify'
p3831
I01
sg348
I01
sS'name'
p3832
I01
sS'g'
p3833
I01
sS'receive'
p3834
I01
sS'work'
p3835
I01
sS'leave'
p3836
I01
sS'unpaid'
p3837
I01
sS'time'
p3838
I01
sS'following'
p3839
I01
sg3222
tp3840
a((dp3841
S'year'
p3842
I01
sS'pursuant'
p3843
I01
sS'entrepreneur'
p3844
I01
sS'parties'
p3845
I01
sS'investment'
p3846
I01
sS'section'
p3847
I01
sS'means'
p3848
I01
sg490
I01
sg491
I01
sg492
I01
sg493
I01
sS'asset'
p3849
I01
sS'income'
p3850
I01
sS'non'
p3851
I01
sS'terms'
p3852
I01
sS'option'
p3853
I01
sS'shall'
p3854
I01
sS'may'
p3855
I01
sS'terminate'
p3856
I01
sg495
I01
sS'agreement'
p3857
I01
sS'date'
p3858
I01
sS'investor'
p3859
I01
sS'payment'
p3860
I01
sS'assets'
p3861
I01
sS'liquid'
p3862
I01
sS'annual'
p3863
I01
sS'amount'
p3864
I01
sS'time'
p3865
I01
sS'termination'
p3866
I01
sg3222
tp3867
a((dp3868
S'months'
p3869
I01
sS'ea'
p3870
I01
sS'rate'
p3871
I01
sS'maternity'
p3872
I01
sS'year'
p3873
I01
sS'employment'
p3874
I01
sS'working'
p3875
I01
sS'pay'
p3876
I01
sS'employer'
p3877
I01
sg490
I01
sg491
I01
sg492
I01
sg493
I01
sg494
I01
sg495
I01
sS'employee'
p3878
I01
sS'entitled'
p3879
I01
sS'week'
p3880
I01
sS'shall'
p3881
I01
sS'agreement'
p3882
I01
sS'paid'
p3883
I01
sS'hours'
p3884
I01
sS'child'
p3885
I01
sS'day'
p3886
I01
sS'11'
p3887
I01
sS'12'
p3888
I01
sS'work'
p3889
I01
sS'days'
p3890
I01
sS'leave'
p3891
I01
sS'time'
p3892
I01
sg3222
tp3893
a((dp3894
S'firm'
p3895
I01
sS'mn'
p3896
I01
sS'ucp'
p3897
I01
sS'dbe'
p3898
I01
sS'prot'
p3899
I01
sS'program'
p3900
I01
sS'safety'
p3901
I01
sS'template'
p3902
I01
sS'include'
p3903
I01
sS'type'
p3904
I01
sS'development'
p3905
I01
sS'business'
p3906
I01
sS'company'
p3907
I01
sS'agreement'
p3908
I01
sS'hours'
p3909
I01
sS'construction'
p3910
I01
sS'date'
p3911
I01
sS'president'
p3912
I01
sS'must'
p3913
I01
sS'received'
p3914
I01
sS'training'
p3915
I01
sS'name'
p3916
I01
sg3833
I01
sS'receive'
p3917
I01
sS'work'
p3918
I01
sS'contract'
p3919
I01
sS'project'
p3920
I01
sS'conducted'
p3921
I01
sS'mentor'
p3922
I01
sS'following'
p3923
I01
sg3222
tp3924
a((dp3925
S'right'
p3926
I01
sS'consent'
p3927
I01
sS'assigned'
p3928
I01
sS'cooperative'
p3929
I01
sS'parties'
p3930
I01
sS'hereinafter'
p3931
I01
sS'agrees'
p3932
I01
sS'use'
p3933
I01
sS'27'
p3934
I01
sS'copyright'
p3935
I01
sS'author'
p3936
I01
sS'uwex'
p3937
I01
sS'system'
p3938
I01
sS'writing'
p3939
I01
sS'written'
p3940
I01
sS'regents'
p3941
I01
sS'copyrights'
p3942
I01
sS'board'
p3943
I01
sS'wisconsin'
p3944
I01
sS'shall'
p3945
I01
sS'may'
p3946
I01
sS'material'
p3947
I01
sS'agreement'
p3948
I01
sS'behalf'
p3949
I01
sS'permissions'
p3950
I01
sS'extension'
p3951
I01
sS'rights'
p3952
I01
sS'university'
p3953
I01
sS'work'
p3954
I01
sS'reasonable'
p3955
I01
sg3222
tp3956
a((dp3957
S'disclosure'
p3958
I01
sS'confidentiality'
p3959
I01
sS'disclosing'
p3960
I01
sS'ipr'
p3961
I01
sS'parties'
p3962
I01
sS'eu'
p3963
I01
sS'information'
p3964
I01
sS'business'
p3965
I01
sS'helpdesk'
p3966
I01
sg490
I01
sg491
I01
sg492
I01
sg494
I01
sS'9'
p3967
I01
sS'breach'
p3968
I01
sS'receiving'
p3969
I01
sS'european'
p3970
I01
sS'non'
p3971
I01
sS'terms'
p3972
I01
sS'confidential'
p3973
I01
sS'shall'
p3974
I01
sS'may'
p3975
I01
sS'agreement'
p3976
I01
sS'purpose'
p3977
I01
sS'party'
p3978
I01
sS'provided'
p3979
I01
sS'insert'
p3980
I01
sS'disclosed'
p3981
I01
sS'project'
p3982
I01
sS'page'
p3983
I01
sg3222
tp3984
a((dp3985
S'code'
p3986
I01
sS'dwelling'
p3987
I01
sS'consent'
p3988
I01
sS'terminate'
p3989
I01
sS'month'
p3990
I01
sS'agents'
p3991
I01
sS'agrees'
p3992
I01
sS'unit'
p3993
I01
sS'use'
p3994
I01
sS'written'
p3995
I01
sS'may'
p3996
I01
sS'state'
p3997
I01
sS'except'
p3998
I01
sS'lease'
p3999
I01
sS'notice'
p4000
I01
sS'shall'
p4001
I01
sS'premises'
p4002
I01
sS'upon'
p4003
I01
sS'agreement'
p4004
I01
sS'utilities'
p4005
I01
sS'phone'
p4006
I01
sS'address'
p4007
I01
sS'damage'
p4008
I01
sS'day'
p4009
I01
sS'tenant'
p4010
I01
sS'without'
p4011
I01
sS'deposit'
p4012
I01
sS'landlord'
p4013
I01
sS'signature'
p4014
I01
sS'property'
p4015
I01
sg3222
tp4016
a((dp4017
S'clause'
p4018
I01
sS'licensed'
p4019
I01
sS'parties'
p4020
I01
sS'20'
p4021
I01
sS'22'
p4022
I01
sS'patent'
p4023
I01
sS'juin'
p4024
I01
sg492
I01
sg494
I01
sS'party'
p4025
I01
sS'territory'
p4026
I01
sS'2011'
p4027
I01
sS'may'
p4028
I01
sS'june'
p4029
I01
sS'agreement'
p4030
I01
sS'bms'
p4031
I01
sS'sublicensee'
p4032
I01
sS'mpp'
p4033
I01
sS'compound'
p4034
I01
sS'date'
p4035
I01
sg348
I01
sS'14'
p4036
I01
sS'rights'
p4037
I01
sS'1998'
p4038
I01
sS'30'
p4039
I01
sS'2001'
p4040
I01
sS'products'
p4041
I01
sS'sublicense'
p4042
I01
sS'2005'
p4043
I01
sS'2008'
p4044
I01
sg3222
tp4045
a((dp4046
S'industrial'
p4047
I01
sS'obligations'
p4048
I01
sS'herein'
p4049
I01
sS'parties'
p4050
I01
sS'dakota'
p4051
I01
sS'terms'
p4052
I01
sS'agrees'
p4053
I01
sS'fails'
p4054
I01
sS'written'
p4055
I01
sS'contractor'
p4056
I01
sS'commission'
p4057
I01
sS'state'
p4058
I01
sS'authorized'
p4059
I01
sS'performance'
p4060
I01
sS'notice'
p4061
I01
sS'north'
p4062
I01
sS'provisions'
p4063
I01
sS'shall'
p4064
I01
sS'may'
p4065
I01
sS'upon'
p4066
I01
sS'agreement'
p4067
I01
sS'report'
p4068
I01
sS'consideration'
p4069
I01
sS'behalf'
p4070
I01
sS'rights'
p4071
I01
sS'technical'
p4072
I01
sS'employees'
p4073
I01
sS'work'
p4074
I01
sS'contract'
p4075
I01
sS'page'
p4076
I01
sg3222
tp4077
a((dp4078
S'www'
p4079
I01
sS'co'
p4080
I01
sS'manuscript'
p4081
I01
sS'reference'
p4082
I01
sS'owner'
p4083
I01
sS'elsevier'
p4084
I01
sS'use'
p4085
I01
sS'publication'
p4086
I01
sS'copyright'
p4087
I01
sS'author'
p4088
I01
sS'personal'
p4089
I01
sS'review'
p4090
I01
sS'please'
p4091
I01
sS'research'
p4092
I01
sS'sharing'
p4093
I01
sS'government'
p4094
I01
sS'journal'
p4095
I01
sS'commercial'
p4096
I01
sS'agreement'
p4097
I01
sS'authors'
p4098
I01
sS'article'
p4099
I01
sS'accepted'
p4100
I01
sS'supplemental'
p4101
I01
sS'publisher'
p4102
I01
sS'rights'
p4103
I01
sS'employees'
p4104
I01
sS'us'
p4105
I01
sS'materials'
p4106
I01
sS'published'
p4107
I01
sS'com'
p4108
I01
sg3222
tp4109
a((dp4110
S'co'
p4111
I01
sS'one'
p4112
I01
sS'parties'
p4113
I01
sS'children'
p4114
I01
sS'issues'
p4115
I01
sS'use'
p4116
I01
sS'section'
p4117
I01
sS'legal'
p4118
I01
sS'costs'
p4119
I01
sS'parents'
p4120
I01
sS'include'
p4121
I01
sS'life'
p4122
I01
sS'parent'
p4123
I01
sS'shall'
p4124
I01
sS'may'
p4125
I01
sS'custodial'
p4126
I01
sS'agreement'
p4127
I01
sS'parenting'
p4128
I01
sS'child'
p4129
I01
sS'expenses'
p4130
I01
sS'care'
p4131
I01
sS'school'
p4132
I01
sg26
I01
sg3833
I01
sS'language'
p4133
I01
sS'wish'
p4134
I01
sS'together'
p4135
I01
sS'future'
p4136
I01
sS'time'
p4137
I01
sS'agree'
p4138
I01
sg3222
tp4139
a((dp4140
S'associated'
p4141
I01
sS'landowner'
p4142
I01
sS'agreed'
p4143
I01
sS'purposes'
p4144
I01
sS'month'
p4145
I01
sS'unless'
p4146
I01
sS'agrees'
p4147
I01
sS'fee'
p4148
I01
sS'pay'
p4149
I01
sS'per'
p4150
I01
sS'insurance'
p4151
I01
sS'late'
p4152
I01
sS'party'
p4153
I01
sS'lease'
p4154
I01
sS'activities'
p4155
I01
sS'notice'
p4156
I01
sS'terms'
p4157
I01
sS'parcel'
p4158
I01
sS'provisions'
p4159
I01
sS'shall'
p4160
I01
sS'may'
p4161
I01
sS'agreement'
p4162
I01
sS'plan'
p4163
I01
sS'date'
p4164
I01
sS'tenant'
p4165
I01
sS'term'
p4166
I01
sS'land'
p4167
I01
sS'default'
p4168
I01
sS'practices'
p4169
I01
sS'either'
p4170
I01
sg3222
tp4171
a((dp4172
S'writer'
p4173
I01
sS'proprietary'
p4174
I01
sS'services'
p4175
I01
sS'right'
p4176
I01
sS'invoice'
p4177
I01
sS'agrees'
p4178
I01
sS'completion'
p4179
I01
sS'information'
p4180
I01
sS'use'
p4181
I01
sS'pay'
p4182
I01
sS'freelance'
p4183
I01
sS'responsible'
p4184
I01
sS'written'
p4185
I01
sS'per'
p4186
I01
sS'writing'
p4187
I01
sS'state'
p4188
I01
sS'shall'
p4189
I01
sS'completed'
p4190
I01
sS'upon'
p4191
I01
sS'agreement'
p4192
I01
sS'date'
p4193
I01
sS'approval'
p4194
I01
sS'payment'
p4195
I01
sS'work'
p4196
I01
sS'contract'
p4197
I01
sS'project'
p4198
I01
sS'client'
p4199
I01
sS'following'
p4200
I01
sS'changes'
p4201
I01
sS'agree'
p4202
I01
sg3222
tp4203
a((dp4204
S'claim'
p4205
I01
sS'fees'
p4206
I01
sS'licensee'
p4207
I01
sS'licensed'
p4208
I01
sS'export'
p4209
I01
sS'parties'
p4210
I01
sS'agrees'
p4211
I01
sS'subject'
p4212
I01
sS'use'
p4213
I01
sS'fee'
p4214
I01
sS'copyright'
p4215
I01
sS'copies'
p4216
I01
sS'event'
p4217
I01
sS'infringement'
p4218
I01
sS'program'
p4219
I01
sS'maintenance'
p4220
I01
sS'forth'
p4221
I01
sS'form'
p4222
I01
sS'shall'
p4223
I01
sS'may'
p4224
I01
sS'agreement'
p4225
I01
sS'liability'
p4226
I01
sS'part'
p4227
I01
sS'hereunder'
p4228
I01
sS'license'
p4229
I01
sS'programs'
p4230
I01
sS'near'
p4231
I01
sS'termination'
p4232
I01
sS'licensor'
p4233
I01
sS'software'
p4234
I01
sg3222
tp4235
a((dp4236
S'supervisor'
p4237
I01
sS'site'
p4238
I01
sS'related'
p4239
I01
sS'intern'
p4240
I01
sS'including'
p4241
I01
sS'result'
p4242
I01
sS'learning'
p4243
I01
sS'wages'
p4244
I01
sS'trust'
p4245
I01
sS'employment'
p4246
I01
sS'agrees'
p4247
I01
sS'guarantee'
p4248
I01
sS'educational'
p4249
I01
sS'death'
p4250
I01
sS'program'
p4251
I01
sS'employee'
p4252
I01
sS'injury'
p4253
I01
sS'internship'
p4254
I01
sS'company'
p4255
I01
sS'agreement'
p4256
I01
sS'sustained'
p4257
I01
sS'10'
p4258
I01
sS'appropriate'
p4259
I01
sS'experience'
p4260
I01
sS'unpaid'
p4261
I01
sS'compensation'
p4262
I01
sS'without'
p4263
I01
sS'learn'
p4264
I01
sS'property'
p4265
I01
sS'page'
p4266
I01
sg3222
tp4267
a((dp4268
S'thereof'
p4269
I01
sS'rent'
p4270
I01
sS'insurance'
p4271
I01
sS'provided'
p4272
I01
sS'use'
p4273
I01
sS'additional'
p4274
I01
sS'damage'
p4275
I01
sS'event'
p4276
I01
sS'may'
p4277
I01
sS'hereof'
p4278
I01
sS'conditions'
p4279
I01
sS'lease'
p4280
I01
sS'notice'
p4281
I01
sS'terms'
p4282
I01
sS'provisions'
p4283
I01
sS'shall'
p4284
I01
sS'premises'
p4285
I01
sS'upon'
p4286
I01
sS'covenants'
p4287
I01
sS'part'
p4288
I01
sS'date'
p4289
I01
sS'article'
p4290
I01
sS'tenant'
p4291
I01
sS'building'
p4292
I01
sS'hereunder'
p4293
I01
sS'term'
p4294
I01
sS'fixed'
p4295
I01
sS'landlord'
p4296
I01
sS'time'
p4297
I01
sS'expense'
p4298
I01
sg3222
tp4299
a((dp4300
S'right'
p4301
I01
sS'third'
p4302
I01
sS'licensee'
p4303
I01
sS'licensed'
p4304
I01
sS'parties'
p4305
I01
sS'quality'
p4306
I01
sS'agrees'
p4307
I01
sS'use'
p4308
I01
sS'title'
p4309
I01
sS'trademark'
p4310
I01
sS'mark'
p4311
I01
sS'infringement'
p4312
I01
sS'written'
p4313
I01
sS'party'
p4314
I01
sS'notice'
p4315
I01
sS'shall'
p4316
I01
sS'may'
p4317
I01
sS'upon'
p4318
I01
sS'agreement'
p4319
I01
sg380
I01
sS'law'
p4320
I01
sS'term'
p4321
I01
sS'goods'
p4322
I01
sS'name'
p4323
I01
sS'license'
p4324
I01
sS'standards'
p4325
I01
sS'without'
p4326
I01
sS'action'
p4327
I01
sS'termination'
p4328
I01
sS'licensor'
p4329
I01
sg3222
tp4330
a((dp4331
S'set'
p4332
I01
sS'parties'
p4333
I01
sS'terminate'
p4334
I01
sS'sales'
p4335
I01
sS'hereto'
p4336
I01
sS'distributor'
p4337
I01
sS'said'
p4338
I01
sS'state'
p4339
I01
sS'hereof'
p4340
I01
sS'supplier'
p4341
I01
sS'breach'
p4342
I01
sS'territory'
p4343
I01
sS'notice'
p4344
I01
sS'shall'
p4345
I01
sS'may'
p4346
I01
sS'price'
p4347
I01
sS'upon'
p4348
I01
sS'agreement'
p4349
I01
sS'effect'
p4350
I01
sS'party'
p4351
I01
sS'date'
p4352
I01
sS'rives'
p4353
I01
sS'change'
p4354
I01
sS'made'
p4355
I01
sS'months'
p4356
I01
sS'days'
p4357
I01
sS'products'
p4358
I01
sS'either'
p4359
I01
sS'termination'
p4360
I01
sS'distribution'
p4361
I01
sg3222
tp4362
a((dp4363
S'right'
p4364
I01
sS'lessor'
p4365
I01
sS'terminate'
p4366
I01
sS'herein'
p4367
I01
sS'county'
p4368
I01
sS'guests'
p4369
I01
sS'lessees'
p4370
I01
sS'hereinafter'
p4371
I01
sS'subject'
p4372
I01
sS'hunting'
p4373
I01
sS'abide'
p4374
I01
sS'hereof'
p4375
I01
sS'timber'
p4376
I01
sS'conditions'
p4377
I01
sS'lease'
p4378
I01
sS'terms'
p4379
I01
sS'shall'
p4380
I01
sS'premises'
p4381
I01
sS'leased'
p4382
I01
sS'upon'
p4383
I01
sS'agreement'
p4384
I01
sS'paid'
p4385
I01
sS'game'
p4386
I01
sS'members'
p4387
I01
sS'day'
p4388
I01
sS'hereunder'
p4389
I01
sS'made'
p4390
I01
sS'lessee'
p4391
I01
sS'organization'
p4392
I01
sS'alabama'
p4393
I01
sg3222
tp4394
a((dp4395
S'required'
p4396
I01
sS'pays'
p4397
I01
sS'household'
p4398
I01
sS'move'
p4399
I01
sS'month'
p4400
I01
sS'code'
p4401
I01
sS'rent'
p4402
I01
sS'owner'
p4403
I01
sS'principal'
p4404
I01
sS'repairs'
p4405
I01
sS'use'
p4406
I01
sS'lead'
p4407
I01
sS'monthly'
p4408
I01
sS'decision'
p4409
I01
sS'written'
p4410
I01
sg491
I01
sS'shall'
p4411
I01
sS'may'
p4412
I01
sS'agreement'
p4413
I01
sS'paid'
p4414
I01
sS'cleaning'
p4415
I01
sS'tenant'
p4416
I01
sg380
I01
sS'dollars'
p4417
I01
sS'bill'
p4418
I01
sS'days'
p4419
I01
sS'deposit'
p4420
I01
sS'landlord'
p4421
I01
sS'pdf'
p4422
I01
sS'security'
p4423
I01
sg3222
tp4424
a((dp4425
S'parties'
p4426
I01
sS'terminate'
p4427
I01
sS'month'
p4428
I01
sS'hereto'
p4429
I01
sS'employment'
p4430
I01
sS'information'
p4431
I01
sS'ontario'
p4432
I01
sS'employer'
p4433
I01
sS'employee'
p4434
I01
sS'party'
p4435
I01
sS'advance'
p4436
I01
sS'duties'
p4437
I01
sS'province'
p4438
I01
sS'notice'
p4439
I01
sS'provisions'
p4440
I01
sS'shall'
p4441
I01
sS'may'
p4442
I01
sS'agreement'
p4443
I01
sS'matters'
p4444
I01
sS'part'
p4445
I01
sS'day'
p4446
I01
sS'successor'
p4447
I01
sS'hereunder'
p4448
I01
sS'term'
p4449
I01
sg380
I01
sS'benefit'
p4450
I01
sS'either'
p4451
I01
sS'time'
p4452
I01
sS'following'
p4453
I01
sS'termination'
p4454
I01
sg3222
tp4455
a((dp4456
S'screenplay'
p4457
I01
sS'producer'
p4458
I01
sS'agreed'
p4459
I01
sS'telephone'
p4460
I01
sS'wardrobe'
p4461
I01
sS'employment'
p4462
I01
sS'agrees'
p4463
I01
sS'film'
p4464
I01
sS'provided'
p4465
I01
sS'use'
p4466
I01
sS'end'
p4467
I01
sS'provide'
p4468
I01
sS'hereinafter'
p4469
I01
sS'actor'
p4470
I01
sS'role'
p4471
I01
sS'terms'
p4472
I01
sS'shall'
p4473
I01
sS'may'
p4474
I01
sS'upon'
p4475
I01
sS'agreement'
p4476
I01
sS'address'
p4477
I01
sS'date'
p4478
I01
sS'copy'
p4479
I01
sS'day'
p4480
I01
sS'term'
p4481
I01
sS'required'
p4482
I01
sS'days'
p4483
I01
sS'project'
p4484
I01
sS'services'
p4485
I01
sS'either'
p4486
I01
sg3222
tp4487
a((dp4488
S'right'
p4489
I01
sS'supervisor'
p4490
I01
sS'office'
p4491
I01
sS'sign'
p4492
I01
sS'provided'
p4493
I01
sS'form'
p4494
I01
sS'pay'
p4495
I01
sS'per'
p4496
I01
sS'equipment'
p4497
I01
sS'responsibilities'
p4498
I01
sS'program'
p4499
I01
sS'employee'
p4500
I01
sS'teleworking'
p4501
I01
sS'complete'
p4502
I01
sS'business'
p4503
I01
sS'read'
p4504
I01
sS'company'
p4505
I01
sS'hours'
p4506
I01
sS'understand'
p4507
I01
sS'telework'
p4508
I01
sg492
I01
sS'day'
p4509
I01
sS'must'
p4510
I01
sS'teleworker'
p4511
I01
sS'follows'
p4512
I01
sS'work'
p4513
I01
sS'days'
p4514
I01
sS'time'
p4515
I01
sS'following'
p4516
I01
sS'agree'
p4517
I01
sg3222
tp4518
a((dp4519
S'hereto'
p4520
I01
sS'pursuant'
p4521
I01
sS'herein'
p4522
I01
sS'county'
p4523
I01
sS'parties'
p4524
I01
sg348
I01
sS'contractor'
p4525
I01
sg490
I01
sg491
I01
sg492
I01
sg493
I01
sS'attachment'
p4526
I01
sS'interest'
p4527
I01
sS'party'
p4528
I01
sg494
I01
sg947
I01
sS'provisions'
p4529
I01
sS'shall'
p4530
I01
sS'may'
p4531
I01
sS'upon'
p4532
I01
sS'agreement'
p4533
I01
sg380
I01
sg506
I01
sS'services'
p4534
I01
sS'provision'
p4535
I01
sS'term'
p4536
I01
sS'made'
p4537
I01
sS'required'
p4538
I01
sS'time'
p4539
I01
sS'page'
p4540
I01
sg3222
tp4541
a((dp4542
S'disclosure'
p4543
I01
sS'limited'
p4544
I01
sS'violation'
p4545
I01
sS'trade'
p4546
I01
sS'parties'
p4547
I01
sS'agrees'
p4548
I01
sS'information'
p4549
I01
sS'confidential'
p4550
I01
sS'shall'
p4551
I01
sS'except'
p4552
I01
sS'disclosed'
p4553
I01
sS'samples'
p4554
I01
sS'breach'
p4555
I01
sS'receiving'
p4556
I01
sS'business'
p4557
I01
sS'provided'
p4558
I01
sS'may'
p4559
I01
sS'company'
p4560
I01
sS'upon'
p4561
I01
sS'agreement'
p4562
I01
sS'purpose'
p4563
I01
sS'party'
p4564
I01
sS'date'
p4565
I01
sS'permitted'
p4566
I01
sS'third'
p4567
I01
sS'employees'
p4568
I01
sS'without'
p4569
I01
sS'products'
p4570
I01
sS'place'
p4571
I01
sS'property'
p4572
I01
sg3222
tp4573
a((dp4574
S'right'
p4575
I01
sS'supply'
p4576
I01
sS'athletic'
p4577
I01
sS'year'
p4578
I01
sS'including'
p4579
I01
sS'parties'
p4580
I01
sS'staff'
p4581
I01
sS'use'
p4582
I01
sS'nike'
p4583
I01
sS'trademark'
p4584
I01
sS'sponsorship'
p4585
I01
sS'written'
p4586
I01
sS'program'
p4587
I01
sS'party'
p4588
I01
sS'subject'
p4589
I01
sS'product'
p4590
I01
sS'terms'
p4591
I01
sS'asu'
p4592
I01
sS'shall'
p4593
I01
sS'may'
p4594
I01
sS'agreement'
p4595
I01
sS'game'
p4596
I01
sS'000'
p4597
I01
sS'term'
p4598
I01
sS'license'
p4599
I01
sS'university'
p4600
I01
sS'contract'
p4601
I01
sS'products'
p4602
I01
sS'footwear'
p4603
I01
sS'team'
p4604
I01
sg3222
tp4605
a((dp4606
S'opioid'
p4607
I01
sS'consent'
p4608
I01
sS'psychological'
p4609
I01
sS'patient'
p4610
I01
sS'physical'
p4611
I01
sS'use'
p4612
I01
sS'medications'
p4613
I01
sS'doctor'
p4614
I01
sS'drugs'
p4615
I01
sg491
I01
sS'program'
p4616
I01
sS'treatment'
p4617
I01
sS'pain'
p4618
I01
sS'emergency'
p4619
I01
sS'prescribed'
p4620
I01
sS'may'
p4621
I01
sS'possible'
p4622
I01
sS'understand'
p4623
I01
sS'effects'
p4624
I01
sS'date'
p4625
I01
sS'day'
p4626
I01
sS'physician'
p4627
I01
sS'opioids'
p4628
I01
sS'taking'
p4629
I01
sS'drug'
p4630
I01
sS'keep'
p4631
I01
sS'signature'
p4632
I01
sS'following'
p4633
I01
sS'addiction'
p4634
I01
sS'side'
p4635
I01
sg3222
tp4636
a((dp4637
S'event'
p4638
I01
sS'parties'
p4639
I01
sS'damage'
p4640
I01
sS'hereto'
p4641
I01
sS'japan'
p4642
I01
sS'hereinafter'
p4643
I01
sS'relating'
p4644
I01
sS'guarantee'
p4645
I01
sS'use'
p4646
I01
sS'written'
p4647
I01
sS'seller'
p4648
I01
sS'delay'
p4649
I01
sg491
I01
sS'hereof'
p4650
I01
sS'party'
p4651
I01
sS'deemed'
p4652
I01
sS'terms'
p4653
I01
sS'shall'
p4654
I01
sS'may'
p4655
I01
sS'price'
p4656
I01
sS'upon'
p4657
I01
sS'agreement'
p4658
I01
sS'buyer'
p4659
I01
sg492
I01
sS'article'
p4660
I01
sS'account'
p4661
I01
sS'contract'
p4662
I01
sS'without'
p4663
I01
sS'products'
p4664
I01
sS'inspection'
p4665
I01
sg3222
tp4666
a((dp4667
S'obligations'
p4668
I01
sS'month'
p4669
I01
sS'buyer'
p4670
I01
sS'parties'
p4671
I01
sS'said'
p4672
I01
sS'seller'
p4673
I01
sS'written'
p4674
I01
sS'print'
p4675
I01
sS'exercise'
p4676
I01
sS'lease'
p4677
I01
sS'notice'
p4678
I01
sS'option'
p4679
I01
sS'shall'
p4680
I01
sS'premises'
p4681
I01
sS'leased'
p4682
I01
sS'utilities'
p4683
I01
sS'agreement'
p4684
I01
sS'date'
p4685
I01
sS'consideration'
p4686
I01
sS'sign'
p4687
I01
sS'tenant'
p4688
I01
sS'must'
p4689
I01
sS'purchase'
p4690
I01
sS'financing'
p4691
I01
sS'prior'
p4692
I01
sS'without'
p4693
I01
sS'services'
p4694
I01
sS'landlord'
p4695
I01
sS'closing'
p4696
I01
sS'property'
p4697
I01
sg3222
tp4698
a((dp4699
S'dwelling'
p4700
I01
sS'give'
p4701
I01
sS'moved'
p4702
I01
sS'month'
p4703
I01
sS'written'
p4704
I01
sS'rent'
p4705
I01
sS'motor'
p4706
I01
sS'fees'
p4707
I01
sS'owner'
p4708
I01
sS'times'
p4709
I01
sS'repairs'
p4710
I01
sS'pay'
p4711
I01
sS'reasonable'
p4712
I01
sS'permission'
p4713
I01
sS'due'
p4714
I01
sS'live'
p4715
I01
sS'pets'
p4716
I01
sS'returned'
p4717
I01
sS'shall'
p4718
I01
sS'may'
p4719
I01
sS'agreement'
p4720
I01
sS'day'
p4721
I01
sS'tenant'
p4722
I01
sS'applicable'
p4723
I01
sS'keep'
p4724
I01
sS'clean'
p4725
I01
sS'following'
p4726
I01
sS'tenants'
p4727
I01
sS'agree'
p4728
I01
sS'first'
p4729
I01
sg3222
tp4730
a((dp4731
S'landowner'
p4732
I01
sS'lessor'
p4733
I01
sS'actions'
p4734
I01
sS'guests'
p4735
I01
sS'agrees'
p4736
I01
sS'hunting'
p4737
I01
sS'area'
p4738
I01
sS'abide'
p4739
I01
sS'may'
p4740
I01
sS'written'
p4741
I01
sS'firearms'
p4742
I01
sS'dangers'
p4743
I01
sS'lease'
p4744
I01
sS'activities'
p4745
I01
sS'unless'
p4746
I01
sS'provisions'
p4747
I01
sS'shall'
p4748
I01
sS'premises'
p4749
I01
sS'upon'
p4750
I01
sS'hereby'
p4751
I01
sS'leased'
p4752
I01
sS'agreement'
p4753
I01
sS'liability'
p4754
I01
sS'date'
p4755
I01
sS'regulations'
p4756
I01
sS'rights'
p4757
I01
sS'damages'
p4758
I01
sS'lessee'
p4759
I01
sS'maintain'
p4760
I01
sS'property'
p4761
I01
sg3222
tp4762
a((dp4763
S'executed'
p4764
I01
sS'mail'
p4765
I01
sS'hereto'
p4766
I01
sS'period'
p4767
I01
sS'parties'
p4768
I01
sS'insurance'
p4769
I01
sS'information'
p4770
I01
sS'use'
p4771
I01
sS'written'
p4772
I01
sS'program'
p4773
I01
sS'authorized'
p4774
I01
sS'employee'
p4775
I01
sS'party'
p4776
I01
sS'indiana'
p4777
I01
sS'publicity'
p4778
I01
sS'confidential'
p4779
I01
sS'shall'
p4780
I01
sS'agreement'
p4781
I01
sS'organization'
p4782
I01
sS'date'
p4783
I01
sS'approval'
p4784
I01
sS'made'
p4785
I01
sS'name'
p4786
I01
sS'purdue'
p4787
I01
sS'university'
p4788
I01
sS'prior'
p4789
I01
sS'without'
p4790
I01
sS'either'
p4791
I01
sS'termination'
p4792
I01
sS'property'
p4793
I01
sg3222
tp4794
a((dp4795
S'issued'
p4796
I01
sS'disclosing'
p4797
I01
sS'pursuant'
p4798
I01
sS'parties'
p4799
I01
sS'agrees'
p4800
I01
sS'information'
p4801
I01
sS'use'
p4802
I01
sS'cornell'
p4803
I01
sS'shall'
p4804
I01
sS'shares'
p4805
I01
sS'event'
p4806
I01
sg490
I01
sg491
I01
sg492
I01
sg494
I01
sS'equity'
p4807
I01
sS'party'
p4808
I01
sS'mcgovern'
p4809
I01
sS'confidential'
p4810
I01
sS'provided'
p4811
I01
sS'may'
p4812
I01
sS'company'
p4813
I01
sS'agreement'
p4814
I01
sS'date'
p4815
I01
sS'article'
p4816
I01
sS'recipient'
p4817
I01
sS'center'
p4818
I01
sS'effective'
p4819
I01
sS'securities'
p4820
I01
sS'act'
p4821
I01
sg3222
tp4822
a((dp4823
S'process'
p4824
I01
sS'parties'
p4825
I01
sS'xx'
p4826
I01
sS'including'
p4827
I01
sS'per'
p4828
I01
sS'fees'
p4829
I01
sS'educational'
p4830
I01
sS'proceeding'
p4831
I01
sS'district'
p4832
I01
sS'provide'
p4833
I01
sS'agency'
p4834
I01
sS'due'
p4835
I01
sS'legal'
p4836
I01
sS'compensatory'
p4837
I01
sS'state'
p4838
I01
sS'parents'
p4839
I01
sS'party'
p4840
I01
sS'shall'
p4841
I01
sS'upon'
p4842
I01
sS'agreement'
p4843
I01
sS'student'
p4844
I01
sS'services'
p4845
I01
sS'20'
p4846
I01
sS'11'
p4847
I01
sS'reimbursement'
p4848
I01
sS'school'
p4849
I01
sS'attorneys'
p4850
I01
sS'x'
p4851
I01
sS'page'
p4852
I01
sS'initials'
p4853
I01
sg3222
tp4854
a((dp4855
S'agreed'
p4856
I01
sS'terminate'
p4857
I01
sS'period'
p4858
I01
sS'parties'
p4859
I01
sS'employment'
p4860
I01
sS'provided'
p4861
I01
sS'said'
p4862
I01
sS'legal'
p4863
I01
sS'employer'
p4864
I01
sS'written'
p4865
I01
sS'discretion'
p4866
I01
sS'employee'
p4867
I01
sS'duties'
p4868
I01
sS'notice'
p4869
I01
sS'shall'
p4870
I01
sS'may'
p4871
I01
sS'advice'
p4872
I01
sS'agreement'
p4873
I01
sS'obtain'
p4874
I01
sS'reason'
p4875
I01
sS'entire'
p4876
I01
sg348
I01
sg380
I01
sS'name'
p4877
I01
sS'prior'
p4878
I01
sS'without'
p4879
I01
sS'place'
p4880
I01
sS'time'
p4881
I01
sS'following'
p4882
I01
sS'termination'
p4883
I01
sg3222
tp4884
a((dp4885
S'executive'
p4886
I01
sS'authority'
p4887
I01
sS'committee'
p4888
I01
sS'participate'
p4889
I01
sS'decisions'
p4890
I01
sS'agrees'
p4891
I01
sS'staff'
p4892
I01
sS'funding'
p4893
I01
sS'provide'
p4894
I01
sS'decision'
p4895
I01
sS'regularly'
p4896
I01
sS'activities'
p4897
I01
sS'risk'
p4898
I01
sS'collaborative'
p4899
I01
sS'may'
p4900
I01
sS'collaboration'
p4901
I01
sS'agreement'
p4902
I01
sS'joint'
p4903
I01
sS'leadership'
p4904
I01
sg4851
I01
sS'date'
p4905
I01
sS'organizations'
p4906
I01
sS'regarding'
p4907
I01
sS'work'
p4908
I01
sS'participating'
p4909
I01
sS'chief'
p4910
I01
sS'officer'
p4911
I01
sS'organization'
p4912
I01
sS'z'
p4913
I01
sS'agree'
p4914
I01
sg3222
tp4915
a((dp4916
S'right'
p4917
I01
sS'distributor'
p4918
I01
sS'developer'
p4919
I01
sS'information'
p4920
I01
sS'use'
p4921
I01
sS'shall'
p4922
I01
sS'written'
p4923
I01
sg490
I01
sg491
I01
sg492
I01
sg493
I01
sS'damages'
p4924
I01
sS'party'
p4925
I01
sS'territory'
p4926
I01
sS'notice'
p4927
I01
sS'business'
p4928
I01
sS'hereunder'
p4929
I01
sS'may'
p4930
I01
sS'upon'
p4931
I01
sS'agreement'
p4932
I01
sS'breach'
p4933
I01
sS'date'
p4934
I01
sS'purchase'
p4935
I01
sS'13'
p4936
I01
sS'without'
p4937
I01
sS'products'
p4938
I01
sS'either'
p4939
I01
sS'time'
p4940
I01
sS'termination'
p4941
I01
sS'order'
p4942
I01
sg3222
tp4943
a((dp4944
S'disclosure'
p4945
I01
sS'45'
p4946
I01
sS'facility'
p4947
I01
sS'obligations'
p4948
I01
sS'entity'
p4949
I01
sS'notwithstanding'
p4950
I01
sS'apply'
p4951
I01
sS'event'
p4952
I01
sS'information'
p4953
I01
sS'use'
p4954
I01
sS'privacy'
p4955
I01
sS'shall'
p4956
I01
sS'health'
p4957
I01
sS'breach'
p4958
I01
sS'phi'
p4959
I01
sS'return'
p4960
I01
sS'business'
p4961
I01
sS'associate'
p4962
I01
sS'upon'
p4963
I01
sS'agreement'
p4964
I01
sS'regulations'
p4965
I01
sS'covered'
p4966
I01
sS'164'
p4967
I01
sS'hipaa'
p4968
I01
sS'comply'
p4969
I01
sg26
I01
sS'standards'
p4970
I01
sS'protected'
p4971
I01
sS'officer'
p4972
I01
sS'termination'
p4973
I01
sg3222
tp4974
a((dp4975
S'lease'
p4976
I01
sS'landowner'
p4977
I01
sS'lessor'
p4978
I01
sS'lessees'
p4979
I01
sS'month'
p4980
I01
sS'guests'
p4981
I01
sS'year'
p4982
I01
sS'premises'
p4983
I01
sS'hunting'
p4984
I01
sS'hereinafter'
p4985
I01
sS'state'
p4986
I01
sS'located'
p4987
I01
sg491
I01
sg492
I01
sg494
I01
sS'cause'
p4988
I01
sS'damages'
p4989
I01
sS'shall'
p4990
I01
sS'may'
p4991
I01
sS'upon'
p4992
I01
sS'leased'
p4993
I01
sS'agreement'
p4994
I01
sS'paid'
p4995
I01
sS'game'
p4996
I01
sS'day'
p4997
I01
sS'animals'
p4998
I01
sS'rights'
p4999
I01
sS'lessee'
p5000
I01
sS'limit'
p5001
I01
sS'property'
p5002
I01
sg3222
tp5003
a((dp5004
S'right'
p5005
I01
sS'text'
p5006
I01
sS'period'
p5007
I01
sS'sponsor'
p5008
I01
sS'composer'
p5009
I01
sS'parties'
p5010
I01
sS'agrees'
p5011
I01
sS'use'
p5012
I01
sS'score'
p5013
I01
sS'copyright'
p5014
I01
sS'permission'
p5015
I01
sg491
I01
sS'program'
p5016
I01
sS'attachment'
p5017
I01
sS'performance'
p5018
I01
sS'composition'
p5019
I01
sS'shall'
p5020
I01
sS'premiere'
p5021
I01
sS'upon'
p5022
I01
sS'agreement'
p5023
I01
sS'letter'
p5024
I01
sS'party'
p5025
I01
sS'date'
p5026
I01
sS'must'
p5027
I01
sg348
I01
sg380
I01
sS'rights'
p5028
I01
sS'parts'
p5029
I01
sS'recording'
p5030
I01
sS'residency'
p5031
I01
sg3222
tp5032
a((dp5033
S'operations'
p5034
I01
sS'less'
p5035
I01
sS'obtain'
p5036
I01
sS'one'
p5037
I01
sS'services'
p5038
I01
sS'subcontractor'
p5039
I01
sS'including'
p5040
I01
sS'performed'
p5041
I01
sS'injuries'
p5042
I01
sS'insurance'
p5043
I01
sS'death'
p5044
I01
sS'personal'
p5045
I01
sS'damage'
p5046
I01
sS'legal'
p5047
I01
sS'contractor'
p5048
I01
sS'500'
p5049
I01
sS'shall'
p5050
I01
sS'may'
p5051
I01
sS'hereby'
p5052
I01
sS'agreement'
p5053
I01
sS'liability'
p5054
I01
sS'000'
p5055
I01
sS'date'
p5056
I01
sS'article'
p5057
I01
sS'general'
p5058
I01
sS'employees'
p5059
I01
sS'work'
p5060
I01
sS'claims'
p5061
I01
sS'property'
p5062
I01
sS'arising'
p5063
I01
sg3222
tp5064
a((dp5065
S'purchaser'
p5066
I01
sS'money'
p5067
I01
sS'within'
p5068
I01
sS'existing'
p5069
I01
sS'close'
p5070
I01
sS'home'
p5071
I01
sS'based'
p5072
I01
sS'shall'
p5073
I01
sS'seller'
p5074
I01
sg493
I01
sS'new'
p5075
I01
sS'notice'
p5076
I01
sS'offer'
p5077
I01
sS'may'
p5078
I01
sS'price'
p5079
I01
sS'upon'
p5080
I01
sS'agreement'
p5081
I01
sS'earnest'
p5082
I01
sS'condition'
p5083
I01
sS'purchase'
p5084
I01
sS'sale'
p5085
I01
sS'contract'
p5086
I01
sS'prior'
p5087
I01
sS'survey'
p5088
I01
sS'time'
p5089
I01
sS'closing'
p5090
I01
sS'property'
p5091
I01
sS'inspection'
p5092
I01
sS'page'
p5093
I01
sS'initials'
p5094
I01
sg3222
tp5095
a((dp5096
S'duquesne'
p5097
I01
sS'partnership'
p5098
I01
sS'sbdc'
p5099
I01
sS'financial'
p5100
I01
sS'accounts'
p5101
I01
sS'parties'
p5102
I01
sS'partner'
p5103
I01
sS'contributions'
p5104
I01
sS'partners'
p5105
I01
sS'death'
p5106
I01
sS'end'
p5107
I01
sS'except'
p5108
I01
sS'interest'
p5109
I01
sS'capital'
p5110
I01
sS'smart'
p5111
I01
sS'business'
p5112
I01
sS'shall'
p5113
I01
sS'may'
p5114
I01
sS'upon'
p5115
I01
sS'agreement'
p5116
I01
sS'date'
p5117
I01
sS'provided'
p5118
I01
sS'purchase'
p5119
I01
sS'account'
p5120
I01
sS'made'
p5121
I01
sS'name'
p5122
I01
sS'university'
p5123
I01
sS'losses'
p5124
I01
sS'time'
p5125
I01
sS'deceased'
p5126
I01
sg3222
tp5127
a((dp5128
S'control'
p5129
I01
sS'certification'
p5130
I01
sS'agreed'
p5131
I01
sS'memorandum'
p5132
I01
sS'agent'
p5133
I01
sS'hiring'
p5134
I01
sS'including'
p5135
I01
sS'performed'
p5136
I01
sS'parties'
p5137
I01
sS'insurance'
p5138
I01
sS'completion'
p5139
I01
sS'use'
p5140
I01
sS'sub'
p5141
I01
sS'working'
p5142
I01
sS'factors'
p5143
I01
sS'perform'
p5144
I01
sS'contractor'
p5145
I01
sS'statement'
p5146
I01
sS'independent'
p5147
I01
sS'relationship'
p5148
I01
sS'may'
p5149
I01
sS'agreement'
p5150
I01
sS'job'
p5151
I01
sS'payment'
p5152
I01
sS'name'
p5153
I01
sS'work'
p5154
I01
sS'contract'
p5155
I01
sS'project'
p5156
I01
sS'materials'
p5157
I01
sS'done'
p5158
I01
sg3222
tp5159
a((dp5160
S'executed'
p5161
I01
sS'rents'
p5162
I01
sS'loan'
p5163
I01
sS'authority'
p5164
I01
sS'county'
p5165
I01
sS'assignee'
p5166
I01
sS'individual'
p5167
I01
sS'right'
p5168
I01
sS'operation'
p5169
I01
sS'documents'
p5170
I01
sS'instrument'
p5171
I01
sS'due'
p5172
I01
sS'premises'
p5173
I01
sS'state'
p5174
I01
sS'new'
p5175
I01
sS'collateral'
p5176
I01
sS'terms'
p5177
I01
sS'provisions'
p5178
I01
sS'shall'
p5179
I01
sS'may'
p5180
I01
sS'assignment'
p5181
I01
sS'upon'
p5182
I01
sS'york'
p5183
I01
sS'personally'
p5184
I01
sS'leases'
p5185
I01
sS'assignor'
p5186
I01
sS'name'
p5187
I01
sS'rights'
p5188
I01
sS'default'
p5189
I01
sS'become'
p5190
I01
sg3222
tp5191
a((dp5192
S'set'
p5193
I01
sS'golf'
p5194
I01
sS'dissolution'
p5195
I01
sS'partnership'
p5196
I01
sS'domestic'
p5197
I01
sS'account'
p5198
I01
sS'community'
p5199
I01
sS'one'
p5200
I01
sS'smedlap'
p5201
I01
sS'partner'
p5202
I01
sS'pat'
p5203
I01
sS'debts'
p5204
I01
sg490
I01
sS'parts'
p5205
I01
sg494
I01
sS'agreement'
p5206
I01
sS'part'
p5207
I01
sS'chris'
p5208
I01
sg492
I01
sS'debt'
p5209
I01
sS'furniture'
p5210
I01
sg348
I01
sg380
I01
sg26
I01
sS'us'
p5211
I01
sS'summary'
p5212
I01
sS'2003'
p5213
I01
sS'marriage'
p5214
I01
sS'property'
p5215
I01
sS'called'
p5216
I01
sg3222
tp5217
a((dp5218
S'right'
p5219
I01
sS'notice'
p5220
I01
sS'licensee'
p5221
I01
sS'offerings'
p5222
I01
sS'parties'
p5223
I01
sS'logo'
p5224
I01
sS'quality'
p5225
I01
sS'agrees'
p5226
I01
sS'use'
p5227
I01
sS'service'
p5228
I01
sS'xbrl'
p5229
I01
sS'mark'
p5230
I01
sS'specifications'
p5231
I01
sS'written'
p5232
I01
sS'party'
p5233
I01
sS'product'
p5234
I01
sS'shall'
p5235
I01
sS'may'
p5236
I01
sS'upon'
p5237
I01
sS'agreement'
p5238
I01
sS'new'
p5239
I01
sS'international'
p5240
I01
sS'respect'
p5241
I01
sS'comply'
p5242
I01
sS'license'
p5243
I01
sS'breach'
p5244
I01
sS'either'
p5245
I01
sS'time'
p5246
I01
sS'licensor'
p5247
I01
sS'otherwise'
p5248
I01
sg3222
tp5249
a((dp5250
S'purchaser'
p5251
I01
sS'acceptance'
p5252
I01
sS'estate'
p5253
I01
sS'money'
p5254
I01
sS'existing'
p5255
I01
sS'offer'
p5256
I01
sS'subject'
p5257
I01
sS'20'
p5258
I01
sS'mortgage'
p5259
I01
sS'title'
p5260
I01
sS'pay'
p5261
I01
sS'sale'
p5262
I01
sS'seller'
p5263
I01
sS'conditions'
p5264
I01
sS'real'
p5265
I01
sS'shall'
p5266
I01
sS'price'
p5267
I01
sS'agreement'
p5268
I01
sS'paid'
p5269
I01
sS'earnest'
p5270
I01
sS'date'
p5271
I01
sS'accepted'
p5272
I01
sS'day'
p5273
I01
sS'purchase'
p5274
I01
sS'accordance'
p5275
I01
sS'cash'
p5276
I01
sS'contract'
p5277
I01
sS'time'
p5278
I01
sS'closing'
p5279
I01
sS'property'
p5280
I01
sg3222
tp5281
a((dp5282
S'month'
p5283
I01
sS'agrees'
p5284
I01
sS'provided'
p5285
I01
sS'use'
p5286
I01
sS'pay'
p5287
I01
sS'written'
p5288
I01
sS'may'
p5289
I01
sS'state'
p5290
I01
sS'condition'
p5291
I01
sS'party'
p5292
I01
sS'lease'
p5293
I01
sS'possession'
p5294
I01
sS'notice'
p5295
I01
sS'provisions'
p5296
I01
sS'shall'
p5297
I01
sS'premises'
p5298
I01
sS'agreement'
p5299
I01
sS'address'
p5300
I01
sS'date'
p5301
I01
sS'law'
p5302
I01
sS'provision'
p5303
I01
sS'day'
p5304
I01
sS'tenant'
p5305
I01
sS'term'
p5306
I01
sS'name'
p5307
I01
sS'items'
p5308
I01
sS'taxes'
p5309
I01
sS'payments'
p5310
I01
sS'landlord'
p5311
I01
sS'following'
p5312
I01
sg3222
tp5313
a((dp5314
S'right'
p5315
I01
sS'proprietary'
p5316
I01
sS'disclosing'
p5317
I01
sS'including'
p5318
I01
sS'parties'
p5319
I01
sS'technology'
p5320
I01
sS'information'
p5321
I01
sS'said'
p5322
I01
sS'patent'
p5323
I01
sS'section'
p5324
I01
sS'employer'
p5325
I01
sS'employee'
p5326
I01
sS'party'
p5327
I01
sS'receiving'
p5328
I01
sS'confidential'
p5329
I01
sS'shall'
p5330
I01
sS'may'
p5331
I01
sS'company'
p5332
I01
sS'hereby'
p5333
I01
sS'upon'
p5334
I01
sS'agreement'
p5335
I01
sS'services'
p5336
I01
sS'law'
p5337
I01
sS'acme'
p5338
I01
sS'rights'
p5339
I01
sS'work'
p5340
I01
sS'without'
p5341
I01
sS'time'
p5342
I01
sS'termination'
p5343
I01
sS'property'
p5344
I01
sg3222
tp5345
a((dp5346
S'limited'
p5347
I01
sS'period'
p5348
I01
sS'sign'
p5349
I01
sS'including'
p5350
I01
sS'employment'
p5351
I01
sS'retirement'
p5352
I01
sS'acknowledge'
p5353
I01
sS'federal'
p5354
I01
sS'read'
p5355
I01
sS'state'
p5356
I01
sS'phased'
p5357
I01
sg947
I01
sS'orange'
p5358
I01
sS'new'
p5359
I01
sS'terms'
p5360
I01
sS'may'
p5361
I01
sS'agreement'
p5362
I01
sS'policy'
p5363
I01
sS'understand'
p5364
I01
sS'faculty'
p5365
I01
sS'hall'
p5366
I01
sS'seton'
p5367
I01
sS'rights'
p5368
I01
sS'university'
p5369
I01
sS'tenured'
p5370
I01
sS'benefit'
p5371
I01
sS'release'
p5372
I01
sS'claims'
p5373
I01
sS'voluntarily'
p5374
I01
sS'south'
p5375
I01
sg3222
tp5376
a((dp5377
S'estate'
p5378
I01
sS'obligations'
p5379
I01
sS'jurisdiction'
p5380
I01
sS'one'
p5381
I01
sS'including'
p5382
I01
sS'parties'
p5383
I01
sS'maine'
p5384
I01
sS'whereas'
p5385
I01
sS'separate'
p5386
I01
sS'state'
p5387
I01
sS'party'
p5388
I01
sS'deemed'
p5389
I01
sS'shall'
p5390
I01
sS'may'
p5391
I01
sS'agreement'
p5392
I01
sS'effect'
p5393
I01
sS'joint'
p5394
I01
sS'shared'
p5395
I01
sS'made'
p5396
I01
sS'hereafter'
p5397
I01
sS'rights'
p5398
I01
sS'whether'
p5399
I01
sS'remain'
p5400
I01
sS'without'
p5401
I01
sS'marriage'
p5402
I01
sS'either'
p5403
I01
sS'time'
p5404
I01
sS'hereto'
p5405
I01
sS'property'
p5406
I01
sS'laws'
p5407
I01
sg3222
tp5408
a((dp5409
S'right'
p5410
I01
sS'cribsforkids'
p5411
I01
sS'guidelines'
p5412
I01
sS'licensee'
p5413
I01
sS'licensed'
p5414
I01
sS'parties'
p5415
I01
sS'provided'
p5416
I01
sS'use'
p5417
I01
sS'trademark'
p5418
I01
sS'mark'
p5419
I01
sg491
I01
sg492
I01
sg494
I01
sg3967
I01
sg506
I01
sS'territory'
p5420
I01
sS'cause'
p5421
I01
sS'notice'
p5422
I01
sS'shall'
p5423
I01
sS'upon'
p5424
I01
sS'agreement'
p5425
I01
sS'printed'
p5426
I01
sS'services'
p5427
I01
sS'promotional'
p5428
I01
sS'term'
p5429
I01
sS'license'
p5430
I01
sS'rights'
p5431
I01
sS'connection'
p5432
I01
sS'materials'
p5433
I01
sS'providing'
p5434
I01
sg3222
tp5435
a((dp5436
S'alcoholic'
p5437
I01
sS'agreed'
p5438
I01
sS'owner'
p5439
I01
sS'yes'
p5440
I01
sS'insurance'
p5441
I01
sS'use'
p5442
I01
sS'facility'
p5443
I01
sS'damage'
p5444
I01
sS'per'
p5445
I01
sS'grange'
p5446
I01
sS'may'
p5447
I01
sS'pm'
p5448
I01
sS'shall'
p5449
I01
sS'premises'
p5450
I01
sS'beverages'
p5451
I01
sS'upon'
p5452
I01
sS'agreement'
p5453
I01
sS'representative'
p5454
I01
sS'date'
p5455
I01
sS'immediately'
p5456
I01
sS'hall'
p5457
I01
sS'name'
p5458
I01
sS'required'
p5459
I01
sS'prior'
p5460
I01
sS'amount'
p5461
I01
sS'deposit'
p5462
I01
sS'time'
p5463
I01
sS'security'
p5464
I01
sS'property'
p5465
I01
sS'user'
p5466
I01
sg3222
tp5467
a((dp5468
S'thereof'
p5469
I01
sS'rent'
p5470
I01
sS'insurance'
p5471
I01
sS'provided'
p5472
I01
sS'use'
p5473
I01
sS'additional'
p5474
I01
sS'damage'
p5475
I01
sS'event'
p5476
I01
sS'may'
p5477
I01
sS'hereof'
p5478
I01
sS'conditions'
p5479
I01
sS'lease'
p5480
I01
sS'notice'
p5481
I01
sS'terms'
p5482
I01
sS'provisions'
p5483
I01
sS'shall'
p5484
I01
sS'premises'
p5485
I01
sS'upon'
p5486
I01
sS'covenants'
p5487
I01
sS'part'
p5488
I01
sS'date'
p5489
I01
sS'article'
p5490
I01
sS'tenant'
p5491
I01
sS'building'
p5492
I01
sS'hereunder'
p5493
I01
sS'term'
p5494
I01
sS'fixed'
p5495
I01
sS'landlord'
p5496
I01
sS'time'
p5497
I01
sS'expense'
p5498
I01
sg3222
tp5499
a((dp5500
S'set'
p5501
I01
sS'fees'
p5502
I01
sS'including'
p5503
I01
sS'parties'
p5504
I01
sS'use'
p5505
I01
sS'may'
p5506
I01
sg491
I01
sg492
I01
sS'party'
p5507
I01
sS'forth'
p5508
I01
sS'product'
p5509
I01
sS'isotope11'
p5510
I01
sS'shall'
p5511
I01
sS'specifications'
p5512
I01
sS'agreement'
p5513
I01
sS'isotope'
p5514
I01
sS'services'
p5515
I01
sS'change'
p5516
I01
sS'11'
p5517
I01
sS'third'
p5518
I01
sS'indemnifying'
p5519
I01
sS'rights'
p5520
I01
sS'days'
p5521
I01
sS'client'
p5522
I01
sS'products'
p5523
I01
sS'action'
p5524
I01
sS'indemnified'
p5525
I01
sS'property'
p5526
I01
sS'order'
p5527
I01
sS'software'
p5528
I01
sg3222
tp5529
a((dp5530
S'limited'
p5531
I01
sS'coverage'
p5532
I01
sS'one'
p5533
I01
sS'education'
p5534
I01
sS'insurance'
p5535
I01
sS'decision'
p5536
I01
sS'make'
p5537
I01
sS'father'
p5538
I01
sS'event'
p5539
I01
sg492
I01
sS'parents'
p5540
I01
sg947
I01
sS'conflict'
p5541
I01
sS'life'
p5542
I01
sS'parent'
p5543
I01
sS'shall'
p5544
I01
sS'may'
p5545
I01
sS'mother'
p5546
I01
sS'agreement'
p5547
I01
sS'effect'
p5548
I01
sS'birth'
p5549
I01
sS'child'
p5550
I01
sS'day'
p5551
I01
sS'care'
p5552
I01
sS'age'
p5553
I01
sS'agree'
p5554
I01
sS'either'
p5555
I01
sS'time'
p5556
I01
sS'making'
p5557
I01
sS'medical'
p5558
I01
sg3222
tp5559
a((dp5560
S'consulting'
p5561
I01
sS'entity'
p5562
I01
sS'parties'
p5563
I01
sS'information'
p5564
I01
sS'use'
p5565
I01
sS'confidential'
p5566
I01
sS'written'
p5567
I01
sg490
I01
sg491
I01
sg492
I01
sg493
I01
sg494
I01
sg947
I01
sg3967
I01
sS'party'
p5568
I01
sS'dispute'
p5569
I01
sS'business'
p5570
I01
sS'shall'
p5571
I01
sS'may'
p5572
I01
sS'company'
p5573
I01
sS'upon'
p5574
I01
sS'agreement'
p5575
I01
sS'services'
p5576
I01
sS'article'
p5577
I01
sS'month'
p5578
I01
sS'consultant'
p5579
I01
sS'work'
p5580
I01
sS'compensation'
p5581
I01
sS'without'
p5582
I01
sS'termination'
p5583
I01
sg3222
tp5584
a((dp5585
S'control'
p5586
I01
sS'caused'
p5587
I01
sS'telephone'
p5588
I01
sS'manager'
p5589
I01
sS'agrees'
p5590
I01
sS'description'
p5591
I01
sS'pet'
p5592
I01
sS'responsible'
p5593
I01
sS'damage'
p5594
I01
sS'caretaker'
p5595
I01
sS'injury'
p5596
I01
sS'type'
p5597
I01
sS'landlord'
p5598
I01
sS'emergency'
p5599
I01
sS'shall'
p5600
I01
sS'agreement'
p5601
I01
sS'promptly'
p5602
I01
sS'address'
p5603
I01
sS'date'
p5604
I01
sS'tenant'
p5605
I01
sS'last'
p5606
I01
sS'name'
p5607
I01
sS'age'
p5608
I01
sS'keep'
p5609
I01
sS'provide'
p5610
I01
sS'costs'
p5611
I01
sS'deposit'
p5612
I01
sS'policies'
p5613
I01
sg4851
I01
sS'first'
p5614
I01
sg3222
tp5615
a((dp5616
S'actions'
p5617
I01
sS'facilities'
p5618
I01
sS'manager'
p5619
I01
sS'individual'
p5620
I01
sS'result'
p5621
I01
sS'rink'
p5622
I01
sS'carry'
p5623
I01
sS'insurance'
p5624
I01
sS'regulations'
p5625
I01
sS'additional'
p5626
I01
sS'service'
p5627
I01
sS'title'
p5628
I01
sS'provide'
p5629
I01
sS'damage'
p5630
I01
sS'agrees'
p5631
I01
sS'provider'
p5632
I01
sS'business'
p5633
I01
sS'rules'
p5634
I01
sS'sole'
p5635
I01
sS'agreement'
p5636
I01
sS'liability'
p5637
I01
sS'000'
p5638
I01
sS'representative'
p5639
I01
sS'loss'
p5640
I01
sS'property'
p5641
I01
sS'name'
p5642
I01
sS'organization'
p5643
I01
sS'providing'
p5644
I01
sS'arising'
p5645
I01
sS'printed'
p5646
I01
sg3222
tp5647
a((dp5648
S'obligations'
p5649
I01
sS'month'
p5650
I01
sS'including'
p5651
I01
sS'taxes'
p5652
I01
sS'information'
p5653
I01
sS'perform'
p5654
I01
sg491
I01
sS'per'
p5655
I01
sS'contractor'
p5656
I01
sS'state'
p5657
I01
sg494
I01
sS'party'
p5658
I01
sS'local'
p5659
I01
sS'terms'
p5660
I01
sS'business'
p5661
I01
sS'shall'
p5662
I01
sS'may'
p5663
I01
sS'company'
p5664
I01
sS'agreement'
p5665
I01
sS'paid'
p5666
I01
sS'others'
p5667
I01
sS'services'
p5668
I01
sS'day'
p5669
I01
sS'10'
p5670
I01
sS'whose'
p5671
I01
sS'accordance'
p5672
I01
sS'consultant'
p5673
I01
sS'contract'
p5674
I01
sS'personal'
p5675
I01
sS'time'
p5676
I01
sg3222
tp5677
a((dp5678
S'right'
p5679
I01
sS'parties'
p5680
I01
sS'sales'
p5681
I01
sS'titles'
p5682
I01
sS'hereto'
p5683
I01
sS'agrees'
p5684
I01
sS'information'
p5685
I01
sS'service'
p5686
I01
sS'title'
p5687
I01
sS'six'
p5688
I01
sS'copies'
p5689
I01
sS'charge'
p5690
I01
sS'book'
p5691
I01
sg495
I01
sS'party'
p5692
I01
sS'returns'
p5693
I01
sS'shall'
p5694
I01
sS'may'
p5695
I01
sS'sole'
p5696
I01
sS'agreement'
p5697
I01
sS'spu'
p5698
I01
sS'breach'
p5699
I01
sS'publisher'
p5700
I01
sS'made'
p5701
I01
sg26
I01
sS'charges'
p5702
I01
sS'books'
p5703
I01
sS'advertising'
p5704
I01
sS'time'
p5705
I01
sS'sa'
p5706
I01
sg3222
tp5707
a((dp5708
S'warranty'
p5709
I01
sS'repair'
p5710
I01
sS'limited'
p5711
I01
sS'caused'
p5712
I01
sS'licensed'
p5713
I01
sS'apply'
p5714
I01
sS'event'
p5715
I01
sS'service'
p5716
I01
sS'pay'
p5717
I01
sS'dealer'
p5718
I01
sg1632
I01
sS'vehicle'
p5719
I01
sS'covered'
p5720
I01
sS'manufacturer'
p5721
I01
sS'may'
p5722
I01
sS'agreement'
p5723
I01
sS'failure'
p5724
I01
sS'part'
p5725
I01
sS'coverage'
p5726
I01
sS'new'
p5727
I01
sS'date'
p5728
I01
sS'must'
p5729
I01
sS'loss'
p5730
I01
sS'mi'
p5731
I01
sS'days'
p5732
I01
sS'us'
p5733
I01
sS'claim'
p5734
I01
sS'amount'
p5735
I01
sS'contact'
p5736
I01
sS'deductible'
p5737
I01
sg3222
tp5738
a((dp5739
S'program'
p5740
I01
sS'facility'
p5741
I01
sS'course'
p5742
I01
sS'sponsor'
p5743
I01
sS'information'
p5744
I01
sS'group'
p5745
I01
sS'provide'
p5746
I01
sS'hospital'
p5747
I01
sg490
I01
sS'may'
p5748
I01
sg491
I01
sg492
I01
sg494
I01
sS'clinical'
p5749
I01
sS'must'
p5750
I01
sS'patient'
p5751
I01
sS'shall'
p5752
I01
sS'students'
p5753
I01
sS'agreement'
p5754
I01
sS'records'
p5755
I01
sS'student'
p5756
I01
sS'date'
p5757
I01
sS'services'
p5758
I01
sS'instructor'
p5759
I01
sS'care'
p5760
I01
sg348
I01
sg380
I01
sS'medical'
p5761
I01
sS'ems'
p5762
I01
sS'time'
p5763
I01
sg3222
tp5764
a((dp5765
S'compensated'
p5766
I01
sS'student'
p5767
I01
sS'office'
p5768
I01
sS'number'
p5769
I01
sS'sign'
p5770
I01
sS'date'
p5771
I01
sS'file'
p5772
I01
sS'dear'
p5773
I01
sS'event'
p5774
I01
sS'provided'
p5775
I01
sS'speakers'
p5776
I01
sS'copy'
p5777
I01
sS'zip'
p5778
I01
sS'provide'
p5779
I01
sS'please'
p5780
I01
sS'copies'
p5781
I01
sS'note'
p5782
I01
sS'varies'
p5783
I01
sS'speaker'
p5784
I01
sS'include'
p5785
I01
sS'agreement'
p5786
I01
sS'letter'
p5787
I01
sS'organization'
p5788
I01
sS'services'
p5789
I01
sS'one'
p5790
I01
sS'name'
p5791
I01
sS'specific'
p5792
I01
sS'amount'
p5793
I01
sS'signature'
p5794
I01
sS'professional'
p5795
I01
sg3222
tp5796
a((dp5797
S'less'
p5798
I01
sS'period'
p5799
I01
sS'one'
p5800
I01
sS'rate'
p5801
I01
sS'allowances'
p5802
I01
sS'wage'
p5803
I01
sS'law'
p5804
I01
sS'working'
p5805
I01
sS'pay'
p5806
I01
sS'travel'
p5807
I01
sS'per'
p5808
I01
sS'employer'
p5809
I01
sS'charge'
p5810
I01
sS'labour'
p5811
I01
sS'employee'
p5812
I01
sS'local'
p5813
I01
sS'11'
p5814
I01
sS'shall'
p5815
I01
sS'hours'
p5816
I01
sg492
I01
sS'regular'
p5817
I01
sS'thailand'
p5818
I01
sS'month'
p5819
I01
sS'day'
p5820
I01
sS'case'
p5821
I01
sS'13'
p5822
I01
sS'work'
p5823
I01
sS'contract'
p5824
I01
sS'expenses'
p5825
I01
sS'signature'
p5826
I01
sg3222
tp5827
a((dp5828
S'right'
p5829
I01
sS'lessor'
p5830
I01
sS'rent'
p5831
I01
sS'hereto'
p5832
I01
sS'event'
p5833
I01
sS'use'
p5834
I01
sS'section'
p5835
I01
sS'state'
p5836
I01
sg490
I01
sS'may'
p5837
I01
sg491
I01
sg492
I01
sg493
I01
sg494
I01
sS'party'
p5838
I01
sS'maryland'
p5839
I01
sS'lease'
p5840
I01
sS'club'
p5841
I01
sS'notice'
p5842
I01
sS'shall'
p5843
I01
sS'premises'
p5844
I01
sS'upon'
p5845
I01
sS'13'
p5846
I01
sS'date'
p5847
I01
sS'term'
p5848
I01
sg380
I01
sS'lessee'
p5849
I01
sS'default'
p5850
I01
sS'hunt'
p5851
I01
sS'road'
p5852
I01
sg3222
tp5853
a((dp5854
S'set'
p5855
I01
sS'force'
p5856
I01
sS'results'
p5857
I01
sS'services'
p5858
I01
sS'committee'
p5859
I01
sS'parties'
p5860
I01
sS'insurance'
p5861
I01
sS'engagement'
p5862
I01
sS'contractor'
p5863
I01
sS'written'
p5864
I01
sS'performance'
p5865
I01
sS'forth'
p5866
I01
sS'duties'
p5867
I01
sS'independent'
p5868
I01
sS'full'
p5869
I01
sS'terms'
p5870
I01
sS'provisions'
p5871
I01
sS'shall'
p5872
I01
sS'may'
p5873
I01
sS'hereby'
p5874
I01
sS'agreement'
p5875
I01
sS'report'
p5876
I01
sS'hereunder'
p5877
I01
sS'term'
p5878
I01
sS'benefits'
p5879
I01
sS'prior'
p5880
I01
sS'compensation'
p5881
I01
sS'without'
p5882
I01
sS'reasonable'
p5883
I01
sS'time'
p5884
I01
sg3222
tp5885
a((dp5886
S'point'
p5887
I01
sS'agreed'
p5888
I01
sS'within'
p5889
I01
sS'iv'
p5890
I01
sS'parties'
p5891
I01
sS'laboratory'
p5892
I01
sS'calendar'
p5893
I01
sS'bailee'
p5894
I01
sS'bailed'
p5895
I01
sS'damage'
p5896
I01
sS'research'
p5897
I01
sg492
I01
sg947
I01
sg495
I01
sS'party'
p5898
I01
sS'bailor'
p5899
I01
sS'return'
p5900
I01
sS'shall'
p5901
I01
sS'agreement'
p5902
I01
sS'delivery'
p5903
I01
sS'purpose'
p5904
I01
sS'date'
p5905
I01
sS'condition'
p5906
I01
sS'naval'
p5907
I01
sS'technical'
p5908
I01
sS'bailment'
p5909
I01
sS'days'
p5910
I01
sS'termination'
p5911
I01
sS'property'
p5912
I01
sS'referred'
p5913
I01
sg3222
tp5914
a((dp5915
S'meetings'
p5916
I01
sS'raisa'
p5917
I01
sS'rate'
p5918
I01
sS'invoice'
p5919
I01
sS'parties'
p5920
I01
sS'lott'
p5921
I01
sS'agrees'
p5922
I01
sS'information'
p5923
I01
sS'dogood'
p5924
I01
sS'seattle'
p5925
I01
sS'grant'
p5926
I01
sS'shall'
p5927
I01
sS'submit'
p5928
I01
sS'contractor'
p5929
I01
sS'364'
p5930
I01
sS'include'
p5931
I01
sS'requested'
p5932
I01
sS'wa'
p5933
I01
sS'206'
p5934
I01
sS'agreement'
p5935
I01
sS'hours'
p5936
I01
sS'services'
p5937
I01
sS'proposal'
p5938
I01
sS'necessary'
p5939
I01
sS'work'
p5940
I01
sS'proposals'
p5941
I01
sS'contract'
p5942
I01
sS'client'
p5943
I01
sS'time'
p5944
I01
sS'organization'
p5945
I01
sg3222
tp5946
a((dp5947
S'rae'
p5948
I01
sS'landowner'
p5949
I01
sS'fence'
p5950
I01
sS'xyz'
p5951
I01
sS'period'
p5952
I01
sS'years'
p5953
I01
sS'improvements'
p5954
I01
sS'leslie'
p5955
I01
sS'year'
p5956
I01
sS'grazing'
p5957
I01
sS'unit'
p5958
I01
sS'livestock'
p5959
I01
sS'20'
p5960
I01
sS'per'
p5961
I01
sS'acres'
p5962
I01
sg493
I01
sS'farming'
p5963
I01
sS'forth'
p5964
I01
sS'terms'
p5965
I01
sS'shall'
p5966
I01
sS'leased'
p5967
I01
sS'agreement'
p5968
I01
sS'purpose'
p5969
I01
sS'end'
p5970
I01
sS'leaser'
p5971
I01
sS'land'
p5972
I01
sS'lessee'
p5973
I01
sS'contract'
p5974
I01
sS'prior'
p5975
I01
sS'henry'
p5976
I01
sg3222
tp5977
a((dp5978
S'set'
p5979
I01
sS'preexisting'
p5980
I01
sS'site'
p5981
I01
sS'one'
p5982
I01
sS'including'
p5983
I01
sS'parties'
p5984
I01
sS'agrees'
p5985
I01
sS'developer'
p5986
I01
sS'web'
p5987
I01
sS'party'
p5988
I01
sS'final'
p5989
I01
sS'confidential'
p5990
I01
sS'shall'
p5991
I01
sS'may'
p5992
I01
sS'company'
p5993
I01
sS'upon'
p5994
I01
sS'agreement'
p5995
I01
sS'deliverables'
p5996
I01
sS'date'
p5997
I01
sS'provided'
p5998
I01
sS'approval'
p5999
I01
sg348
I01
sg380
I01
sS'rights'
p6000
I01
sS'work'
p6001
I01
sS'days'
p6002
I01
sS'server'
p6003
I01
sS'materials'
p6004
I01
sS'time'
p6005
I01
sS'works'
p6006
I01
sg3222
tp6007
a.